
.//Obj/apt32f171a.elf:     file format elf32-csky-little


Disassembly of section .text:

00000000 <vector_table>:
       0:	00000104 	.long	0x00000104
       4:	00005cce 	.long	0x00005cce
       8:	00005ca6 	.long	0x00005ca6
       c:	0000017c 	.long	0x0000017c
      10:	00005cba 	.long	0x00005cba
      14:	00005c6a 	.long	0x00005c6a
      18:	0000017c 	.long	0x0000017c
      1c:	00005c92 	.long	0x00005c92
      20:	00005c7e 	.long	0x00005c7e
      24:	0000017c 	.long	0x0000017c
      28:	0000017c 	.long	0x0000017c
      2c:	0000017c 	.long	0x0000017c
      30:	0000017c 	.long	0x0000017c
      34:	0000017c 	.long	0x0000017c
      38:	0000017c 	.long	0x0000017c
      3c:	0000017c 	.long	0x0000017c
      40:	00005c56 	.long	0x00005c56
      44:	00005c42 	.long	0x00005c42
      48:	00005c2e 	.long	0x00005c2e
      4c:	00005c1a 	.long	0x00005c1a
      50:	0000017c 	.long	0x0000017c
      54:	0000017c 	.long	0x0000017c
      58:	0000017c 	.long	0x0000017c
      5c:	0000017c 	.long	0x0000017c
      60:	0000017c 	.long	0x0000017c
      64:	0000017c 	.long	0x0000017c
      68:	0000017c 	.long	0x0000017c
      6c:	0000017c 	.long	0x0000017c
      70:	0000017c 	.long	0x0000017c
      74:	0000017c 	.long	0x0000017c
      78:	0000017c 	.long	0x0000017c
      7c:	00005c10 	.long	0x00005c10
      80:	00005128 	.long	0x00005128
      84:	0000513c 	.long	0x0000513c
      88:	00005220 	.long	0x00005220
      8c:	00005282 	.long	0x00005282
      90:	000059fe 	.long	0x000059fe
      94:	00005a6a 	.long	0x00005a6a
      98:	00005ad6 	.long	0x00005ad6
      9c:	000052d8 	.long	0x000052d8
      a0:	00005302 	.long	0x00005302
      a4:	00005874 	.long	0x00005874
      a8:	00005b42 	.long	0x00005b42
      ac:	00005ba2 	.long	0x00005ba2
      b0:	0000541e 	.long	0x0000541e
      b4:	00005448 	.long	0x00005448
      b8:	00005488 	.long	0x00005488
      bc:	00005642 	.long	0x00005642
      c0:	000056bc 	.long	0x000056bc
      c4:	000056f4 	.long	0x000056f4
      c8:	0000572c 	.long	0x0000572c
      cc:	00005764 	.long	0x00005764
      d0:	0000585c 	.long	0x0000585c
      d4:	0000532c 	.long	0x0000532c
      d8:	0000536e 	.long	0x0000536e
      dc:	000053c4 	.long	0x000053c4
      e0:	0000579c 	.long	0x0000579c
      e4:	0000017c 	.long	0x0000017c
      e8:	0000017c 	.long	0x0000017c
      ec:	00005844 	.long	0x00005844
      f0:	000057e4 	.long	0x000057e4
      f4:	000057fc 	.long	0x000057fc
      f8:	00005814 	.long	0x00005814
      fc:	0000582c 	.long	0x0000582c
     100:	00000006 	.long	0x00000006

00000104 <__start>:
.text
.export __start
//  .long __start
__start:
  //initialize all registers
  movi r0, 0
     104:	3000      	movi      	r0, 0
  movi r1, 0
     106:	3100      	movi      	r1, 0
  movi r2, 0
     108:	3200      	movi      	r2, 0
  movi r3, 0
     10a:	3300      	movi      	r3, 0
  movi r4, 0
     10c:	3400      	movi      	r4, 0
  movi r5, 0
     10e:	3500      	movi      	r5, 0
  movi r6, 0
     110:	3600      	movi      	r6, 0
  movi r7, 0
     112:	3700      	movi      	r7, 0
  //movi r13, 0
  //movi r14, 0
  //movi r15, 0

//set VBR
  lrw r2, vector_table
     114:	105b      	lrw      	r2, 0x0	// 180 <DummyHandler+0x4>
  mtcr r2, cr<1,0>
     116:	c0026421 	mtcr      	r2, cr<1, 0>

//enable EE bit of psr
  mfcr r2, cr<0,0>
     11a:	c0006022 	mfcr      	r2, cr<0, 0>
  bseti r2, r2, 8
     11e:	3aa8      	bseti      	r2, 8
  mtcr r2, cr<0,0>
     120:	c0026420 	mtcr      	r2, cr<0, 0>
//  st.w    r2, (r1,0x4)
//  movi    r2, 0x1
//  st.w    r2, (r1,0x0)

//disable power peak 
  lrw     r1, 0xe000ef90
     124:	1038      	lrw      	r1, 0xe000ef90	// 184 <DummyHandler+0x8>
  movi    r2, 0x0
     126:	3200      	movi      	r2, 0
  st.w    r2, (r1, 0x0)
     128:	b140      	st.w      	r2, (r1, 0x0)

//initialize kernel stack
  lrw  r7, __kernel_stack
     12a:	10f8      	lrw      	r7, 0x200017f8	// 188 <DummyHandler+0xc>
  mov r14,r7
     12c:	6f9f      	mov      	r14, r7
  subi r6,r7,0x4
     12e:	5fcf      	subi      	r6, r7, 4
  lrw  r3, 0x40
     130:	3340      	movi      	r3, 64
  subu r4, r7, r3
     132:	5f8d      	subu      	r4, r7, r3
  lrw  r5, 0x0
     134:	3500      	movi      	r5, 0

00000136 <INIT_KERLE_STACK>:
INIT_KERLE_STACK:
  addi r4, 0x4
     136:	2403      	addi      	r4, 4
  st.w r5, (r4)
     138:	b4a0      	st.w      	r5, (r4, 0x0)
  //cmphs r7, r4
  cmphs r6, r4
     13a:	6518      	cmphs      	r6, r4
  bt  INIT_KERLE_STACK
     13c:	0bfd      	bt      	0x136	// 136 <INIT_KERLE_STACK>

0000013e <__to_main>:
        
__to_main:
  lrw r0,__main
     13e:	1014      	lrw      	r0, 0x1ac	// 18c <DummyHandler+0x10>
  jsr r0
     140:	7bc1      	jsr      	r0
  mov r0, r0
     142:	6c03      	mov      	r0, r0
  mov r0, r0
     144:	6c03      	mov      	r0, r0

  lrw r15, __exit
     146:	ea8f0013 	lrw      	r15, 0x158	// 190 <DummyHandler+0x14>
  lrw r0,main
     14a:	1013      	lrw      	r0, 0x65f4	// 194 <DummyHandler+0x18>
  jmp r0
     14c:	7800      	jmp      	r0
  mov r0, r0
     14e:	6c03      	mov      	r0, r0
  mov r0, r0
     150:	6c03      	mov      	r0, r0
  mov r0, r0
     152:	6c03      	mov      	r0, r0
  mov r0, r0
     154:	6c03      	mov      	r0, r0
  mov r0, r0
     156:	6c03      	mov      	r0, r0

00000158 <__exit>:

.export __exit
__exit:

  lrw r4, 0x20003000
     158:	1090      	lrw      	r4, 0x20003000	// 198 <DummyHandler+0x1c>
  //lrw r5, 0x0
  mov r5, r0
     15a:	6d43      	mov      	r5, r0
  st.w r5, (r4)
     15c:	b4a0      	st.w      	r5, (r4, 0x0)

  mfcr r1, cr<0,0>
     15e:	c0006021 	mfcr      	r1, cr<0, 0>
  lrw  r1, 0xFFFF
     162:	102f      	lrw      	r1, 0xffff	// 19c <DummyHandler+0x20>
  mtcr r1, cr<11,0>
     164:	c001642b 	mtcr      	r1, cr<11, 0>
  lrw     r1, 0xFFF
     168:	102e      	lrw      	r1, 0xfff	// 1a0 <DummyHandler+0x24>
  movi    r0, 0x0
     16a:	3000      	movi      	r0, 0
  st      r1, (r0)
     16c:	b020      	st.w      	r1, (r0, 0x0)

0000016e <__fail>:

.export __fail
__fail:
  lrw  r1, 0xEEEE
     16e:	102e      	lrw      	r1, 0xeeee	// 1a4 <DummyHandler+0x28>
  mtcr r1, cr<11,0>
     170:	c001642b 	mtcr      	r1, cr<11, 0>
  lrw     r1, 0xEEE
     174:	102d      	lrw      	r1, 0xeee	// 1a8 <DummyHandler+0x2c>
  movi    r0, 0x0
     176:	3000      	movi      	r0, 0
  st      r1, (r0)
     178:	b020      	st.w      	r1, (r0, 0x0)

0000017a <__dummy>:

__dummy:
  br      __fail
     17a:	07fa      	br      	0x16e	// 16e <__fail>

0000017c <DummyHandler>:

.export DummyHandler
DummyHandler:
  br      __fail
     17c:	07f9      	br      	0x16e	// 16e <__fail>
     17e:	0000      	.short	0x0000
     180:	00000000 	.long	0x00000000
     184:	e000ef90 	.long	0xe000ef90
     188:	200017f8 	.long	0x200017f8
     18c:	000001ac 	.long	0x000001ac
     190:	00000158 	.long	0x00000158
     194:	000065f4 	.long	0x000065f4
     198:	20003000 	.long	0x20003000
     19c:	0000ffff 	.long	0x0000ffff
     1a0:	00000fff 	.long	0x00000fff
     1a4:	0000eeee 	.long	0x0000eeee
     1a8:	00000eee 	.long	0x00000eee

000001ac <__main>:
extern char _bss_start[];
extern char _ebss[];


void __main( void ) 
{
     1ac:	14d0      	push      	r15

  /* if the start of data (dst)
     is not equal to end of text (src) then
     copy it, else it's already in the right place
     */
  if( _start_data != _end_rodata ) {
     1ae:	1009      	lrw      	r0, 0x20000000	// 1d0 <__main+0x24>
     1b0:	1029      	lrw      	r1, 0x6608	// 1d4 <__main+0x28>
     1b2:	6442      	cmpne      	r0, r1
     1b4:	0c05      	bf      	0x1be	// 1be <__main+0x12>
//    __memcpy_fast( dst, src, (_end_data - _start_data));
    memcpy( dst, src, (_end_data - _start_data));
     1b6:	1049      	lrw      	r2, 0x2000007c	// 1d8 <__main+0x2c>
     1b8:	6082      	subu      	r2, r0
     1ba:	e00031eb 	bsr      	0x6590	// 6590 <__memcpy_fast>
  }

  /* zero the bss 
   */
  if( _ebss - _bss_start ) {
     1be:	1048      	lrw      	r2, 0x20000108	// 1dc <__main+0x30>
     1c0:	1008      	lrw      	r0, 0x2000007c	// 1e0 <__main+0x34>
     1c2:	640a      	cmpne      	r2, r0
     1c4:	0c05      	bf      	0x1ce	// 1ce <__main+0x22>
//    __memset_fast( _bss_start, 0x00, ( _ebss - _bss_start ));
    memset( _bss_start, 0x00, ( _ebss - _bss_start ));
     1c6:	6082      	subu      	r2, r0
     1c8:	3100      	movi      	r1, 0
     1ca:	e000319f 	bsr      	0x6508	// 6508 <__memset_fast>
  }
}
     1ce:	1490      	pop      	r15
     1d0:	20000000 	.long	0x20000000
     1d4:	00006608 	.long	0x00006608
     1d8:	2000007c 	.long	0x2000007c
     1dc:	20000108 	.long	0x20000108
     1e0:	2000007c 	.long	0x2000007c

000001e4 <CK801_int_Init>:


void CK801_int_Init(void)
{
        /* Initial the Interrupt source priority level registers */
        CK802->IPR[0] = 0xC0804000;
     1e4:	1072      	lrw      	r3, 0x20000078	// 22c <CK801_int_Init+0x48>
     1e6:	3180      	movi      	r1, 128
     1e8:	9360      	ld.w      	r3, (r3, 0x0)
     1ea:	4123      	lsli      	r1, r1, 3
     1ec:	1051      	lrw      	r2, 0xc0804000	// 230 <CK801_int_Init+0x4c>
     1ee:	604c      	addu      	r1, r3
     1f0:	b140      	st.w      	r2, (r1, 0x0)
        CK802->IPR[1] = 0xC0804000;
     1f2:	1031      	lrw      	r1, 0x404	// 234 <CK801_int_Init+0x50>
     1f4:	604c      	addu      	r1, r3
     1f6:	b140      	st.w      	r2, (r1, 0x0)
        CK802->IPR[2] = 0xC0804000;
     1f8:	3181      	movi      	r1, 129
     1fa:	4123      	lsli      	r1, r1, 3
     1fc:	604c      	addu      	r1, r3
     1fe:	b140      	st.w      	r2, (r1, 0x0)
        CK802->IPR[3] = 0xC0804000;
     200:	102e      	lrw      	r1, 0x40c	// 238 <CK801_int_Init+0x54>
     202:	604c      	addu      	r1, r3
     204:	b140      	st.w      	r2, (r1, 0x0)
        CK802->IPR[4] = 0xC0804000;
     206:	3182      	movi      	r1, 130
     208:	4123      	lsli      	r1, r1, 3
     20a:	604c      	addu      	r1, r3
     20c:	b140      	st.w      	r2, (r1, 0x0)
        CK802->IPR[5] = 0xC0804000;
     20e:	102c      	lrw      	r1, 0x414	// 23c <CK801_int_Init+0x58>
     210:	604c      	addu      	r1, r3
     212:	b140      	st.w      	r2, (r1, 0x0)
        CK802->IPR[6] = 0xC0804000;
     214:	3183      	movi      	r1, 131
     216:	4123      	lsli      	r1, r1, 3
     218:	604c      	addu      	r1, r3
     21a:	b140      	st.w      	r2, (r1, 0x0)
        CK802->IPR[7] = 0xC0804000;
     21c:	1029      	lrw      	r1, 0x41c	// 240 <CK801_int_Init+0x5c>
     21e:	604c      	addu      	r1, r3
     220:	b140      	st.w      	r2, (r1, 0x0)

        CK802->IPTR 	 = 0x00000000;//disable threshold
     222:	1049      	lrw      	r2, 0xc04	// 244 <CK801_int_Init+0x60>
     224:	60c8      	addu      	r3, r2
     226:	3200      	movi      	r2, 0
     228:	b340      	st.w      	r2, (r3, 0x0)
}
     22a:	783c      	jmp      	r15
     22c:	20000078 	.long	0x20000078
     230:	c0804000 	.long	0xc0804000
     234:	00000404 	.long	0x00000404
     238:	0000040c 	.long	0x0000040c
     23c:	00000414 	.long	0x00000414
     240:	0000041c 	.long	0x0000041c
     244:	00000c04 	.long	0x00000c04

00000248 <force_interrupt>:

void force_interrupt(IRQn_Type IRQn)
{
	CK802->ISPR = (1 << (uint32_t)(IRQn));
     248:	1068      	lrw      	r3, 0x20000078	// 268 <CK_CPU_DisAllNormalIrq+0x8>
     24a:	3180      	movi      	r1, 128
     24c:	9360      	ld.w      	r3, (r3, 0x0)
     24e:	4122      	lsli      	r1, r1, 2
     250:	3201      	movi      	r2, 1
     252:	7080      	lsl      	r2, r0
     254:	60c4      	addu      	r3, r1
     256:	b340      	st.w      	r2, (r3, 0x0)
}
     258:	783c      	jmp      	r15

0000025a <CK_CPU_EnAllNormalIrq>:


void CK_CPU_EnAllNormalIrq(void)
{
  asm  ("psrset ee,ie");
     25a:	c1807420 	psrset      	ee, ie
}
     25e:	783c      	jmp      	r15

00000260 <CK_CPU_DisAllNormalIrq>:

void CK_CPU_DisAllNormalIrq(void)
{
 asm  ("psrclr ie");
     260:	c0807020 	psrclr      	ie
}
     264:	783c      	jmp      	r15
     266:	0000      	bkpt
     268:	20000078 	.long	0x20000078

0000026c <EPT_Software_Prg>:
//EntryParameter:NONE
//ReturnValue:NONE
/*************************************************************/    
void EPT_Software_Prg(void)
{
	EPT0->CEDR|=0X01;
     26c:	1067      	lrw      	r3, 0x20000034	// 288 <EPT_Software_Prg+0x1c>
	EPT0->RSSR=(EPT0->RSSR&0XFFFF0FFF)|(0X05<<12);
     26e:	31f0      	movi      	r1, 240
	EPT0->CEDR|=0X01;
     270:	9340      	ld.w      	r2, (r3, 0x0)
     272:	9260      	ld.w      	r3, (r2, 0x0)
     274:	3ba0      	bseti      	r3, 0
     276:	b260      	st.w      	r3, (r2, 0x0)
	EPT0->RSSR=(EPT0->RSSR&0XFFFF0FFF)|(0X05<<12);
     278:	9261      	ld.w      	r3, (r2, 0x4)
     27a:	4128      	lsli      	r1, r1, 8
     27c:	68c5      	andn      	r3, r1
     27e:	3bac      	bseti      	r3, 12
     280:	3bae      	bseti      	r3, 14
     282:	b261      	st.w      	r3, (r2, 0x4)
}
     284:	783c      	jmp      	r15
     286:	0000      	bkpt
     288:	20000034 	.long	0x20000034

0000028c <EPT_Start>:
//EntryParameter:NONE
//ReturnValue:NONE
/*************************************************************/   
void EPT_Start(void)
{
	EPT0->REGPROT = (0xA55A<<16) | 0xC73A;
     28c:	0176      	lrw      	r3, 0x20000034	// 5b0 <EPT_CPCR_Config+0xa>
     28e:	3280      	movi      	r2, 128
     290:	9360      	ld.w      	r3, (r3, 0x0)
     292:	608c      	addu      	r2, r3
     294:	0137      	lrw      	r1, 0xa55ac73a	// 5b4 <EPT_CPCR_Config+0xe>
     296:	b23a      	st.w      	r1, (r2, 0x68)
	EPT0->RSSR|=0X01;
     298:	9341      	ld.w      	r2, (r3, 0x4)
     29a:	3aa0      	bseti      	r2, 0
     29c:	b341      	st.w      	r2, (r3, 0x4)
	while(!(EPT0->RSSR&0x01));
     29e:	3101      	movi      	r1, 1
     2a0:	9341      	ld.w      	r2, (r3, 0x4)
     2a2:	6884      	and      	r2, r1
     2a4:	3a40      	cmpnei      	r2, 0
     2a6:	0ffd      	bf      	0x2a0	// 2a0 <EPT_Start+0x14>
} 
     2a8:	783c      	jmp      	r15

000002aa <EPT_Stop>:
//EntryParameter:NONE
//ReturnValue:NONE
/*************************************************************/   
void EPT_Stop(void)
{
	EPT0->REGPROT = (0xA55A<<16) | 0xC73A;
     2aa:	017d      	lrw      	r3, 0x20000034	// 5b0 <EPT_CPCR_Config+0xa>
     2ac:	3280      	movi      	r2, 128
     2ae:	9360      	ld.w      	r3, (r3, 0x0)
     2b0:	608c      	addu      	r2, r3
     2b2:	013e      	lrw      	r1, 0xa55ac73a	// 5b4 <EPT_CPCR_Config+0xe>
     2b4:	b23a      	st.w      	r1, (r2, 0x68)
	EPT0->RSSR&=0Xfe;
     2b6:	9341      	ld.w      	r2, (r3, 0x4)
     2b8:	31fe      	movi      	r1, 254
     2ba:	6884      	and      	r2, r1
     2bc:	b341      	st.w      	r2, (r3, 0x4)
	while(EPT0->RSSR&0x01);
     2be:	3101      	movi      	r1, 1
     2c0:	9341      	ld.w      	r2, (r3, 0x4)
     2c2:	6884      	and      	r2, r1
     2c4:	3a40      	cmpnei      	r2, 0
     2c6:	0bfd      	bt      	0x2c0	// 2c0 <EPT_Stop+0x16>
}
     2c8:	783c      	jmp      	r15

000002ca <EPT_IO_SET>:
//EPT_IO_X:EPT_IO_CHAX,EPT_IO_CHAY,EPT_IO_CHBX,EPT_IO_CHBY,EPT_IO_CHCX,EPT_IO_CHCX,EPT_IO_CHD,EPT_IO_EPI
//ReturnValue:NONE
/*************************************************************/    
void EPT_IO_SET(EPT_IO_Mode_Type EPT_IO_X , EPT_IO_NUM_Type IO_Num_X)
{
	if(EPT_IO_X==EPT_IO_CHAX)
     2ca:	3840      	cmpnei      	r0, 0
     2cc:	082b      	bt      	0x322	// 322 <EPT_IO_SET+0x58>
	{
		if(IO_Num_X==IO_NUM_PA00)
     2ce:	3950      	cmpnei      	r1, 16
     2d0:	0809      	bt      	0x2e2	// 2e2 <EPT_IO_SET+0x18>
		{
			GPIOA0->CONLR = (GPIOA0->CONLR&0XFFFFFFF0)|0X00000008;				//PA0.0
     2d2:	0265      	lrw      	r3, 0x20000014	// 5b8 <EPT_CPCR_Config+0x12>
     2d4:	310f      	movi      	r1, 15
     2d6:	9340      	ld.w      	r2, (r3, 0x0)
     2d8:	9260      	ld.w      	r3, (r2, 0x0)
     2da:	68c5      	andn      	r3, r1
     2dc:	3ba3      	bseti      	r3, 3
		{
			GPIOA1->CONLR = (GPIOA1->CONLR&0XFFF0FFFF)|0X00080000;				//PA1.4
		}
		else if(IO_Num_X==IO_NUM_PB00)
		{
			GPIOB0->CONLR = (GPIOB0->CONLR&0XFFFFFFF0)|0X00000006;				//PB0.0
     2de:	b260      	st.w      	r3, (r2, 0x0)
		else if(IO_Num_X==IO_NUM_PB02)
		{
			GPIOB0->CONLR = (GPIOB0->CONLR&0XFFFFF0FF)|0X00000700;				//PB0.2 EBI3
		}
	}
}
     2e0:	783c      	jmp      	r15
		else if(IO_Num_X==IO_NUM_PA09)
     2e2:	3951      	cmpnei      	r1, 17
     2e4:	080a      	bt      	0x2f8	// 2f8 <EPT_IO_SET+0x2e>
			GPIOA0->CONHR = (GPIOA0->CONHR&0XFFFFFF0F)|0X00000060;				//PA0.9
     2e6:	026a      	lrw      	r3, 0x20000014	// 5b8 <EPT_CPCR_Config+0x12>
     2e8:	31f0      	movi      	r1, 240
     2ea:	9340      	ld.w      	r2, (r3, 0x0)
     2ec:	9261      	ld.w      	r3, (r2, 0x4)
     2ee:	68c5      	andn      	r3, r1
     2f0:	3ba5      	bseti      	r3, 5
     2f2:	3ba6      	bseti      	r3, 6
			GPIOA0->CONHR = (GPIOA0->CONHR&0XFFFFFFF0)|0X00000006;				//PA0.8
     2f4:	b261      	st.w      	r3, (r2, 0x4)
     2f6:	07f5      	br      	0x2e0	// 2e0 <EPT_IO_SET+0x16>
		else if(IO_Num_X==IO_NUM_PA14)
     2f8:	3952      	cmpnei      	r1, 18
     2fa:	080a      	bt      	0x30e	// 30e <EPT_IO_SET+0x44>
			GPIOA1->CONLR = (GPIOA1->CONLR&0XFFF0FFFF)|0X00080000;				//PA1.4
     2fc:	026f      	lrw      	r3, 0x20000010	// 5bc <EPT_CPCR_Config+0x16>
			GPIOB0->CONLR = (GPIOB0->CONLR&0XFFF0FFFF)|0X00080000;				//PB0.4
     2fe:	9320      	ld.w      	r1, (r3, 0x0)
     300:	32f0      	movi      	r2, 240
     302:	9160      	ld.w      	r3, (r1, 0x0)
     304:	424c      	lsli      	r2, r2, 12
     306:	68c9      	andn      	r3, r2
     308:	3bb3      	bseti      	r3, 19
			GPIOB0->CONLR = (GPIOB0->CONLR&0XFFFFF0FF)|0X00000700;				//PB0.2 EBI3
     30a:	b160      	st.w      	r3, (r1, 0x0)
}
     30c:	07ea      	br      	0x2e0	// 2e0 <EPT_IO_SET+0x16>
		else if(IO_Num_X==IO_NUM_PB00)
     30e:	3953      	cmpnei      	r1, 19
     310:	0be8      	bt      	0x2e0	// 2e0 <EPT_IO_SET+0x16>
			GPIOB0->CONLR = (GPIOB0->CONLR&0XFFFFFFF0)|0X00000006;				//PB0.0
     312:	0273      	lrw      	r3, 0x2000000c	// 5c0 <EPT_CPCR_Config+0x1a>
     314:	9340      	ld.w      	r2, (r3, 0x0)
     316:	9260      	ld.w      	r3, (r2, 0x0)
     318:	310f      	movi      	r1, 15
     31a:	68c5      	andn      	r3, r1
     31c:	3ba1      	bseti      	r3, 1
     31e:	3ba2      	bseti      	r3, 2
     320:	07df      	br      	0x2de	// 2de <EPT_IO_SET+0x14>
	else if(EPT_IO_X==EPT_IO_CHAY)
     322:	3841      	cmpnei      	r0, 1
     324:	0820      	bt      	0x364	// 364 <EPT_IO_SET+0x9a>
		if(IO_Num_X==IO_NUM_PA01)
     326:	3954      	cmpnei      	r1, 20
     328:	0808      	bt      	0x338	// 338 <EPT_IO_SET+0x6e>
			GPIOA0->CONLR = (GPIOA0->CONLR&0XFFFFFF0F)|0X00000080;				//PA0.1
     32a:	027b      	lrw      	r3, 0x20000014	// 5b8 <EPT_CPCR_Config+0x12>
     32c:	31f0      	movi      	r1, 240
     32e:	9340      	ld.w      	r2, (r3, 0x0)
     330:	9260      	ld.w      	r3, (r2, 0x0)
     332:	68c5      	andn      	r3, r1
     334:	3ba7      	bseti      	r3, 7
     336:	07d4      	br      	0x2de	// 2de <EPT_IO_SET+0x14>
		else if(IO_Num_X==IO_NUM_PA010)
     338:	3955      	cmpnei      	r1, 21
     33a:	080b      	bt      	0x350	// 350 <EPT_IO_SET+0x86>
			GPIOA0->CONHR = (GPIOA0->CONHR&0XFFFFF0FF)|0X00000600;				//PA0.10
     33c:	0360      	lrw      	r3, 0x20000014	// 5b8 <EPT_CPCR_Config+0x12>
     33e:	32f0      	movi      	r2, 240
     340:	9320      	ld.w      	r1, (r3, 0x0)
     342:	9161      	ld.w      	r3, (r1, 0x4)
     344:	4244      	lsli      	r2, r2, 4
     346:	68c9      	andn      	r3, r2
     348:	3ba9      	bseti      	r3, 9
     34a:	3baa      	bseti      	r3, 10
     34c:	b161      	st.w      	r3, (r1, 0x4)
     34e:	07c9      	br      	0x2e0	// 2e0 <EPT_IO_SET+0x16>
		else if(IO_Num_X==IO_NUM_PB01)
     350:	3956      	cmpnei      	r1, 22
     352:	0bc7      	bt      	0x2e0	// 2e0 <EPT_IO_SET+0x16>
			GPIOB0->CONLR = (GPIOB0->CONLR&0XFFFFFF0F)|0X00000060;				//PB0.1
     354:	0364      	lrw      	r3, 0x2000000c	// 5c0 <EPT_CPCR_Config+0x1a>
			GPIOA0->CONLR = (GPIOA0->CONLR&0XFFFFFF0F)|0X00000060;				//PA0.1
     356:	9340      	ld.w      	r2, (r3, 0x0)
     358:	9260      	ld.w      	r3, (r2, 0x0)
     35a:	31f0      	movi      	r1, 240
     35c:	68c5      	andn      	r3, r1
     35e:	3ba5      	bseti      	r3, 5
     360:	3ba6      	bseti      	r3, 6
     362:	07be      	br      	0x2de	// 2de <EPT_IO_SET+0x14>
	else if(EPT_IO_X==EPT_IO_CHBX)
     364:	3842      	cmpnei      	r0, 2
     366:	0819      	bt      	0x398	// 398 <EPT_IO_SET+0xce>
		if(IO_Num_X==IO_NUM_PA00)
     368:	3950      	cmpnei      	r1, 16
     36a:	0803      	bt      	0x370	// 370 <EPT_IO_SET+0xa6>
			GPIOA0->CONLR = (GPIOA0->CONLR&0XFFFFFFF0)|0X00000006;				//PA0.0
     36c:	036c      	lrw      	r3, 0x20000014	// 5b8 <EPT_CPCR_Config+0x12>
     36e:	07d3      	br      	0x314	// 314 <EPT_IO_SET+0x4a>
		else if(IO_Num_X==IO_NUM_PA07)
     370:	3957      	cmpnei      	r1, 23
     372:	0809      	bt      	0x384	// 384 <EPT_IO_SET+0xba>
			GPIOA0->CONLR = (GPIOA0->CONLR&0X0FFFFFFF)|0X60000000;				//PA0.7
     374:	036e      	lrw      	r3, 0x20000014	// 5b8 <EPT_CPCR_Config+0x12>
     376:	9340      	ld.w      	r2, (r3, 0x0)
     378:	9260      	ld.w      	r3, (r2, 0x0)
     37a:	4364      	lsli      	r3, r3, 4
     37c:	4b64      	lsri      	r3, r3, 4
     37e:	3bbd      	bseti      	r3, 29
     380:	3bbe      	bseti      	r3, 30
     382:	07ae      	br      	0x2de	// 2de <EPT_IO_SET+0x14>
		else if(IO_Num_X==IO_NUM_PA15)
     384:	3958      	cmpnei      	r1, 24
     386:	0bad      	bt      	0x2e0	// 2e0 <EPT_IO_SET+0x16>
			GPIOA1->CONLR = (GPIOA1->CONLR&0XFF0FFFFF)|0X00800000;				//PA1.5
     388:	0372      	lrw      	r3, 0x20000010	// 5bc <EPT_CPCR_Config+0x16>
			GPIOB0->CONLR = (GPIOB0->CONLR&0XFF0FFFFF)|0X00800000;				//PB0.5
     38a:	9320      	ld.w      	r1, (r3, 0x0)
     38c:	32f0      	movi      	r2, 240
     38e:	9160      	ld.w      	r3, (r1, 0x0)
     390:	4250      	lsli      	r2, r2, 16
     392:	68c9      	andn      	r3, r2
     394:	3bb7      	bseti      	r3, 23
     396:	07ba      	br      	0x30a	// 30a <EPT_IO_SET+0x40>
	else if(EPT_IO_X==EPT_IO_CHBY)
     398:	3843      	cmpnei      	r0, 3
     39a:	080f      	bt      	0x3b8	// 3b8 <EPT_IO_SET+0xee>
		if(IO_Num_X==IO_NUM_PA01)
     39c:	3954      	cmpnei      	r1, 20
     39e:	0803      	bt      	0x3a4	// 3a4 <EPT_IO_SET+0xda>
			GPIOA0->CONLR = (GPIOA0->CONLR&0XFFFFFF0F)|0X00000060;				//PA0.1
     3a0:	0379      	lrw      	r3, 0x20000014	// 5b8 <EPT_CPCR_Config+0x12>
     3a2:	07da      	br      	0x356	// 356 <EPT_IO_SET+0x8c>
		else if(IO_Num_X==IO_NUM_PA08)
     3a4:	3959      	cmpnei      	r1, 25
     3a6:	0b9d      	bt      	0x2e0	// 2e0 <EPT_IO_SET+0x16>
			GPIOA0->CONHR = (GPIOA0->CONHR&0XFFFFFFF0)|0X00000006;				//PA0.8
     3a8:	037b      	lrw      	r3, 0x20000014	// 5b8 <EPT_CPCR_Config+0x12>
     3aa:	310f      	movi      	r1, 15
     3ac:	9340      	ld.w      	r2, (r3, 0x0)
     3ae:	9261      	ld.w      	r3, (r2, 0x4)
     3b0:	68c5      	andn      	r3, r1
     3b2:	3ba1      	bseti      	r3, 1
     3b4:	3ba2      	bseti      	r3, 2
     3b6:	079f      	br      	0x2f4	// 2f4 <EPT_IO_SET+0x2a>
	else if(EPT_IO_X==EPT_IO_CHCX)
     3b8:	3844      	cmpnei      	r0, 4
     3ba:	0811      	bt      	0x3dc	// 3dc <EPT_IO_SET+0x112>
		if(IO_Num_X==IO_NUM_PA05)
     3bc:	395a      	cmpnei      	r1, 26
     3be:	080b      	bt      	0x3d4	// 3d4 <EPT_IO_SET+0x10a>
			GPIOA0->CONLR = (GPIOA0->CONLR&0XFF0FFFFF)|0X00700000;				//PA0.5
     3c0:	137e      	lrw      	r3, 0x20000014	// 5b8 <EPT_CPCR_Config+0x12>
     3c2:	32f0      	movi      	r2, 240
     3c4:	9320      	ld.w      	r1, (r3, 0x0)
     3c6:	4250      	lsli      	r2, r2, 16
     3c8:	9160      	ld.w      	r3, (r1, 0x0)
     3ca:	68c9      	andn      	r3, r2
     3cc:	32e0      	movi      	r2, 224
     3ce:	424f      	lsli      	r2, r2, 15
			GPIOB0->CONLR = (GPIOB0->CONLR&0XFFFFF0FF)|0X00000700;				//PB0.2 EBI3
     3d0:	6cc8      	or      	r3, r2
     3d2:	079c      	br      	0x30a	// 30a <EPT_IO_SET+0x40>
		else if(IO_Num_X==IO_NUM_PB04)
     3d4:	395b      	cmpnei      	r1, 27
     3d6:	0b85      	bt      	0x2e0	// 2e0 <EPT_IO_SET+0x16>
			GPIOB0->CONLR = (GPIOB0->CONLR&0XFFF0FFFF)|0X00080000;				//PB0.4
     3d8:	137a      	lrw      	r3, 0x2000000c	// 5c0 <EPT_CPCR_Config+0x1a>
     3da:	0792      	br      	0x2fe	// 2fe <EPT_IO_SET+0x34>
	else if(EPT_IO_X==EPT_IO_CHCY)
     3dc:	3845      	cmpnei      	r0, 5
     3de:	0810      	bt      	0x3fe	// 3fe <EPT_IO_SET+0x134>
		if(IO_Num_X==IO_NUM_PA06)
     3e0:	395c      	cmpnei      	r1, 28
     3e2:	080a      	bt      	0x3f6	// 3f6 <EPT_IO_SET+0x12c>
			GPIOA0->CONLR = (GPIOA0->CONLR&0XF0FFFFFF)|0X07000000;				//PA0.6
     3e4:	1375      	lrw      	r3, 0x20000014	// 5b8 <EPT_CPCR_Config+0x12>
     3e6:	32f0      	movi      	r2, 240
     3e8:	9320      	ld.w      	r1, (r3, 0x0)
     3ea:	4254      	lsli      	r2, r2, 20
     3ec:	9160      	ld.w      	r3, (r1, 0x0)
     3ee:	68c9      	andn      	r3, r2
     3f0:	32e0      	movi      	r2, 224
     3f2:	4253      	lsli      	r2, r2, 19
     3f4:	07ee      	br      	0x3d0	// 3d0 <EPT_IO_SET+0x106>
		else if(IO_Num_X==IO_NUM_PB05)
     3f6:	395d      	cmpnei      	r1, 29
     3f8:	0b74      	bt      	0x2e0	// 2e0 <EPT_IO_SET+0x16>
			GPIOB0->CONLR = (GPIOB0->CONLR&0XFF0FFFFF)|0X00800000;				//PB0.5
     3fa:	1372      	lrw      	r3, 0x2000000c	// 5c0 <EPT_CPCR_Config+0x1a>
     3fc:	07c7      	br      	0x38a	// 38a <EPT_IO_SET+0xc0>
	else if(EPT_IO_X==EPT_IO_CHD)
     3fe:	3846      	cmpnei      	r0, 6
     400:	0822      	bt      	0x444	// 444 <EPT_IO_SET+0x17a>
		if(IO_Num_X==IO_NUM_PA02)
     402:	395e      	cmpnei      	r1, 30
     404:	080a      	bt      	0x418	// 418 <EPT_IO_SET+0x14e>
			GPIOA0->CONLR = (GPIOA0->CONLR&0XFFFFF0FF)|0X00000700;				//PA0.2
     406:	136d      	lrw      	r3, 0x20000014	// 5b8 <EPT_CPCR_Config+0x12>
			GPIOB0->CONLR = (GPIOB0->CONLR&0XFFFFF0FF)|0X00000700;				//PB0.2 EBI3
     408:	9320      	ld.w      	r1, (r3, 0x0)
     40a:	32f0      	movi      	r2, 240
     40c:	4244      	lsli      	r2, r2, 4
     40e:	9160      	ld.w      	r3, (r1, 0x0)
     410:	68c9      	andn      	r3, r2
     412:	32e0      	movi      	r2, 224
     414:	4243      	lsli      	r2, r2, 3
     416:	07dd      	br      	0x3d0	// 3d0 <EPT_IO_SET+0x106>
		else if(IO_Num_X==IO_NUM_PA13)
     418:	395f      	cmpnei      	r1, 31
     41a:	080a      	bt      	0x42e	// 42e <EPT_IO_SET+0x164>
			GPIOA1->CONLR = (GPIOA1->CONLR&0XFFFF0FFF)|0X00007000;				//PA1.3
     41c:	1368      	lrw      	r3, 0x20000010	// 5bc <EPT_CPCR_Config+0x16>
     41e:	32f0      	movi      	r2, 240
     420:	9320      	ld.w      	r1, (r3, 0x0)
     422:	4248      	lsli      	r2, r2, 8
     424:	9160      	ld.w      	r3, (r1, 0x0)
     426:	68c9      	andn      	r3, r2
     428:	32e0      	movi      	r2, 224
     42a:	4247      	lsli      	r2, r2, 7
     42c:	07d2      	br      	0x3d0	// 3d0 <EPT_IO_SET+0x106>
		else if(IO_Num_X==IO_NUM_PB04)
     42e:	395b      	cmpnei      	r1, 27
     430:	0b58      	bt      	0x2e0	// 2e0 <EPT_IO_SET+0x16>
			GPIOB0->CONLR = (GPIOB0->CONLR&0XFFF0FFFF)|0X00060000;				//PB0.4
     432:	1364      	lrw      	r3, 0x2000000c	// 5c0 <EPT_CPCR_Config+0x1a>
     434:	32f0      	movi      	r2, 240
     436:	9320      	ld.w      	r1, (r3, 0x0)
     438:	9160      	ld.w      	r3, (r1, 0x0)
     43a:	424c      	lsli      	r2, r2, 12
     43c:	68c9      	andn      	r3, r2
     43e:	3bb1      	bseti      	r3, 17
     440:	3bb2      	bseti      	r3, 18
     442:	0764      	br      	0x30a	// 30a <EPT_IO_SET+0x40>
	else if(EPT_IO_X==EPT_IO_EBI)
     444:	3847      	cmpnei      	r0, 7
     446:	0b4d      	bt      	0x2e0	// 2e0 <EPT_IO_SET+0x16>
		if(IO_Num_X==IO_NUM_PA10)
     448:	3320      	movi      	r3, 32
     44a:	64c6      	cmpne      	r1, r3
     44c:	0809      	bt      	0x45e	// 45e <EPT_IO_SET+0x194>
			GPIOA1->CONLR = (GPIOA1->CONLR&0XFFFFFFF0)|0X00000007;				//PA1.0 EBI0
     44e:	127c      	lrw      	r3, 0x20000010	// 5bc <EPT_CPCR_Config+0x16>
     450:	310f      	movi      	r1, 15
     452:	9340      	ld.w      	r2, (r3, 0x0)
     454:	9260      	ld.w      	r3, (r2, 0x0)
     456:	68c5      	andn      	r3, r1
     458:	6c0c      	or      	r0, r3
     45a:	b200      	st.w      	r0, (r2, 0x0)
     45c:	0742      	br      	0x2e0	// 2e0 <EPT_IO_SET+0x16>
		else if(IO_Num_X==IO_NUM_PA11)
     45e:	3321      	movi      	r3, 33
     460:	64c6      	cmpne      	r1, r3
     462:	0809      	bt      	0x474	// 474 <EPT_IO_SET+0x1aa>
			GPIOA1->CONLR = (GPIOA1->CONLR&0XFFFFFF0F)|0X00000070;				//PA1.1 EBI1
     464:	1276      	lrw      	r3, 0x20000010	// 5bc <EPT_CPCR_Config+0x16>
     466:	31f0      	movi      	r1, 240
     468:	9340      	ld.w      	r2, (r3, 0x0)
     46a:	9260      	ld.w      	r3, (r2, 0x0)
     46c:	68c5      	andn      	r3, r1
     46e:	3170      	movi      	r1, 112
     470:	6cc4      	or      	r3, r1
     472:	0736      	br      	0x2de	// 2de <EPT_IO_SET+0x14>
		else if(IO_Num_X==IO_NUM_PA12)
     474:	3322      	movi      	r3, 34
     476:	64c6      	cmpne      	r1, r3
     478:	0803      	bt      	0x47e	// 47e <EPT_IO_SET+0x1b4>
			GPIOA1->CONLR = (GPIOA1->CONLR&0XFFFFF0FF)|0X00000700;				//PA1.2 EBI2
     47a:	1271      	lrw      	r3, 0x20000010	// 5bc <EPT_CPCR_Config+0x16>
     47c:	07c6      	br      	0x408	// 408 <EPT_IO_SET+0x13e>
		else if(IO_Num_X==IO_NUM_PB02)
     47e:	3323      	movi      	r3, 35
     480:	64c6      	cmpne      	r1, r3
     482:	0b2f      	bt      	0x2e0	// 2e0 <EPT_IO_SET+0x16>
			GPIOB0->CONLR = (GPIOB0->CONLR&0XFFFFF0FF)|0X00000700;				//PB0.2 EBI3
     484:	126f      	lrw      	r3, 0x2000000c	// 5c0 <EPT_CPCR_Config+0x1a>
     486:	07c1      	br      	0x408	// 408 <EPT_IO_SET+0x13e>

00000488 <EPT_PWM_Config>:
//ReturnValue:NONE
/*************************************************************/  
//Fclk=Fpclk/(PSC+1)
void EPT_PWM_Config(EPT_TCLK_Selecte_Type EPT_TCLK_Selecte_X , EPT_CNTMD_SELECTE_Type EPT_CNTMD_SELECTE_X  , EPT_OPM_SELECTE_Type EPT_OPM_SELECTE_X
					, U16_T EPT_PSCR)		
{
     488:	14c3      	push      	r4-r6
     48a:	6d8b      	mov      	r6, r2
	EPT0->CEDR=(EPT0->CEDR&0XFFFFFF00)|(0X01|EPT_TCLK_Selecte_X|(0X01<<1)|(0X00<<6));
     48c:	1249      	lrw      	r2, 0x20000034	// 5b0 <EPT_CPCR_Config+0xa>
	if(EPT_TCLK_Selecte_X==EPT_Selecte_PCLK)
     48e:	3840      	cmpnei      	r0, 0
	EPT0->CEDR=(EPT0->CEDR&0XFFFFFF00)|(0X01|EPT_TCLK_Selecte_X|(0X01<<1)|(0X00<<6));
     490:	92a0      	ld.w      	r5, (r2, 0x0)
     492:	9580      	ld.w      	r4, (r5, 0x0)
     494:	32ff      	movi      	r2, 255
     496:	6909      	andn      	r4, r2
     498:	3ca0      	bseti      	r4, 0
     49a:	3ca1      	bseti      	r4, 1
     49c:	6d00      	or      	r4, r0
     49e:	b580      	st.w      	r4, (r5, 0x0)
	if(EPT_TCLK_Selecte_X==EPT_Selecte_PCLK)
     4a0:	0802      	bt      	0x4a4	// 4a4 <EPT_PWM_Config+0x1c>
	{
		EPT0->PSCR=EPT_PSCR;
     4a2:	b562      	st.w      	r3, (r5, 0x8)
	}
	EPT0->CR=(EPT0->CR&0xfff8ffc0)|EPT_CNTMD_SELECTE_X|(0x1<<2)|(0x0<<3)|(0x0<<4)|EPT_OPM_SELECTE_X|(0X0<<16)|(0x1<<18);
     4a4:	9543      	ld.w      	r2, (r5, 0xc)
     4a6:	1268      	lrw      	r3, 0x7003f	// 5c4 <EPT_CPCR_Config+0x1e>
     4a8:	688d      	andn      	r2, r3
     4aa:	6c98      	or      	r2, r6
     4ac:	3aa2      	bseti      	r2, 2
     4ae:	3ab2      	bseti      	r2, 18
     4b0:	6c48      	or      	r1, r2
     4b2:	b523      	st.w      	r1, (r5, 0xc)
} 
     4b4:	1483      	pop      	r4-r6

000004b6 <EPT_CG_gate_Config>:
//EPT_CGFLT_CNT:0~7
//EPT_BURST_CMD:EPT_BURST_ENABLE,EPT_BURST_DISABLE
//ReturnValue:NONE
/*************************************************************/ 
void EPT_CG_gate_Config(EPT_CGSRC_TIN_Selecte_Type EPT_CGSRC_TIN_Selecte_X , U8_T EPT_CGFLT_DIV , U8_T EPT_CGFLT_CNT , EPT_BURST_CMD_Type EPT_BURST_CMD)
{
     4b6:	14c3      	push      	r4-r6
	EPT0->CR=(EPT0->CR&0xffff01ff)|EPT_BURST_CMD|EPT_CGFLT_CNT<<13|0x01<<10;
     4b8:	119e      	lrw      	r4, 0x20000034	// 5b0 <EPT_CPCR_Config+0xa>
     4ba:	36fe      	movi      	r6, 254
     4bc:	9480      	ld.w      	r4, (r4, 0x0)
     4be:	94a3      	ld.w      	r5, (r4, 0xc)
     4c0:	46c8      	lsli      	r6, r6, 8
     4c2:	6959      	andn      	r5, r6
     4c4:	3daa      	bseti      	r5, 10
     4c6:	424d      	lsli      	r2, r2, 13
     4c8:	6cd4      	or      	r3, r5
     4ca:	6cc8      	or      	r3, r2
     4cc:	b463      	st.w      	r3, (r4, 0xc)
	EPT0->CEDR=(EPT0->CEDR&0XFFFF00CF)|(EPT_CGFLT_DIV<<8);
     4ce:	9460      	ld.w      	r3, (r4, 0x0)
     4d0:	115e      	lrw      	r2, 0xff30	// 5c8 <EPT_CPCR_Config+0x22>
     4d2:	68c9      	andn      	r3, r2
     4d4:	4128      	lsli      	r1, r1, 8
     4d6:	6c4c      	or      	r1, r3
	if(EPT_CGSRC_TIN_Selecte_X==EPT_CGSRC_DIS)
     4d8:	3844      	cmpnei      	r0, 4
	EPT0->CEDR=(EPT0->CEDR&0XFFFF00CF)|(EPT_CGFLT_DIV<<8);
     4da:	b420      	st.w      	r1, (r4, 0x0)
	if(EPT_CGSRC_TIN_Selecte_X==EPT_CGSRC_DIS)
     4dc:	0808      	bt      	0x4ec	// 4ec <EPT_CG_gate_Config+0x36>
	{
		EPT0->CEDR|=0X00<<4;
     4de:	9460      	ld.w      	r3, (r4, 0x0)
     4e0:	b460      	st.w      	r3, (r4, 0x0)
		EPT0->CR|=0X03<<11;
     4e2:	9463      	ld.w      	r3, (r4, 0xc)
     4e4:	3bab      	bseti      	r3, 11
     4e6:	3bac      	bseti      	r3, 12
		EPT0->CR|=0X00<<11;
	}
	else if(EPT_CGSRC_TIN_Selecte_X==EPT_CGSRC_CHBX)
	{
		EPT0->CEDR|=0X00<<4;
		EPT0->CR|=0X01<<11;
     4e8:	b463      	st.w      	r3, (r4, 0xc)
	}
}
     4ea:	1483      	pop      	r4-r6
	else if(EPT_CGSRC_TIN_Selecte_X==EPT_CGSRC_TIN_BT0OUT)
     4ec:	3840      	cmpnei      	r0, 0
     4ee:	0807      	bt      	0x4fc	// 4fc <EPT_CG_gate_Config+0x46>
		EPT0->CEDR|=0X01<<4;
     4f0:	9460      	ld.w      	r3, (r4, 0x0)
     4f2:	3ba4      	bseti      	r3, 4
		EPT0->CEDR|=0X02<<4;
     4f4:	b460      	st.w      	r3, (r4, 0x0)
		EPT0->CR|=0X02<<11;
     4f6:	9463      	ld.w      	r3, (r4, 0xc)
     4f8:	3bac      	bseti      	r3, 12
     4fa:	07f7      	br      	0x4e8	// 4e8 <EPT_CG_gate_Config+0x32>
	else if(EPT_CGSRC_TIN_Selecte_X==EPT_CGSRC_TIN_BT1OUT)
     4fc:	3841      	cmpnei      	r0, 1
     4fe:	0804      	bt      	0x506	// 506 <EPT_CG_gate_Config+0x50>
		EPT0->CEDR|=0X02<<4;
     500:	9460      	ld.w      	r3, (r4, 0x0)
     502:	3ba5      	bseti      	r3, 5
     504:	07f8      	br      	0x4f4	// 4f4 <EPT_CG_gate_Config+0x3e>
	else if(EPT_CGSRC_TIN_Selecte_X==EPT_CGSRC_CHAX)
     506:	3842      	cmpnei      	r0, 2
     508:	0805      	bt      	0x512	// 512 <EPT_CG_gate_Config+0x5c>
		EPT0->CEDR|=0X00<<4;
     50a:	9460      	ld.w      	r3, (r4, 0x0)
     50c:	b460      	st.w      	r3, (r4, 0x0)
		EPT0->CR|=0X00<<11;
     50e:	9463      	ld.w      	r3, (r4, 0xc)
     510:	07ec      	br      	0x4e8	// 4e8 <EPT_CG_gate_Config+0x32>
	else if(EPT_CGSRC_TIN_Selecte_X==EPT_CGSRC_CHBX)
     512:	3843      	cmpnei      	r0, 3
     514:	0beb      	bt      	0x4ea	// 4ea <EPT_CG_gate_Config+0x34>
		EPT0->CEDR|=0X00<<4;
     516:	9460      	ld.w      	r3, (r4, 0x0)
     518:	b460      	st.w      	r3, (r4, 0x0)
		EPT0->CR|=0X01<<11;
     51a:	9463      	ld.w      	r3, (r4, 0xc)
     51c:	3bab      	bseti      	r3, 11
     51e:	07e5      	br      	0x4e8	// 4e8 <EPT_CG_gate_Config+0x32>

00000520 <EPT_Capture_Config>:
//ReturnValue:NONE
/*************************************************************/  
void EPT_Capture_Config(EPT_TCLK_Selecte_Type EPT_TCLK_Selecte_X , EPT_CNTMD_SELECTE_Type EPT_CNTMD_SELECTE_X  , EPT_CAPMD_SELECTE_Type EPT_CAPMD_SELECTE_X , EPT_CAPLDEN_CMD_Type CAP_CMD 
					, EPT_LOAD_CMPA_RST_CMD_Type EPT_LOAD_CMPA_RST_CMD , EPT_LOAD_CMPB_RST_CMD_Type EPT_LOAD_CMPB_RST_CMD , EPT_LOAD_CMPC_RST_CMD_Type EPT_LOAD_CMPC_RST_CMD
					, EPT_LOAD_CMPD_RST_CMD_Type EPT_LOAD_CMPD_RST_CMD , U8_T EPT_STOP_WRAP , U16_T EPT_PSCR)
{
     520:	14c4      	push      	r4-r7
     522:	1425      	subi      	r14, r14, 20
     524:	9889      	ld.w      	r4, (r14, 0x24)
     526:	b880      	st.w      	r4, (r14, 0x0)
     528:	988a      	ld.w      	r4, (r14, 0x28)
     52a:	b881      	st.w      	r4, (r14, 0x4)
     52c:	988b      	ld.w      	r4, (r14, 0x2c)
     52e:	b882      	st.w      	r4, (r14, 0x8)
     530:	988c      	ld.w      	r4, (r14, 0x30)
     532:	b883      	st.w      	r4, (r14, 0xc)
     534:	1c0d      	addi      	r4, r14, 52
     536:	8480      	ld.b      	r4, (r4, 0x0)
     538:	b884      	st.w      	r4, (r14, 0x10)
	EPT0->CEDR=(EPT0->CEDR&0XFFFFFF00)|(0X01|EPT_TCLK_Selecte_X|(0X01<<1)|(0X00<<6));
     53a:	37ff      	movi      	r7, 255
     53c:	109d      	lrw      	r4, 0x20000034	// 5b0 <EPT_CPCR_Config+0xa>
	if(EPT_TCLK_Selecte_X==EPT_Selecte_PCLK)
     53e:	3840      	cmpnei      	r0, 0
	EPT0->CEDR=(EPT0->CEDR&0XFFFFFF00)|(0X01|EPT_TCLK_Selecte_X|(0X01<<1)|(0X00<<6));
     540:	94a0      	ld.w      	r5, (r4, 0x0)
     542:	9580      	ld.w      	r4, (r5, 0x0)
     544:	691d      	andn      	r4, r7
     546:	3ca0      	bseti      	r4, 0
     548:	3ca1      	bseti      	r4, 1
     54a:	6d00      	or      	r4, r0
{
     54c:	d8ce101c 	ld.h      	r6, (r14, 0x38)
	EPT0->CEDR=(EPT0->CEDR&0XFFFFFF00)|(0X01|EPT_TCLK_Selecte_X|(0X01<<1)|(0X00<<6));
     550:	b580      	st.w      	r4, (r5, 0x0)
	if(EPT_TCLK_Selecte_X==EPT_Selecte_PCLK)
     552:	0802      	bt      	0x556	// 556 <EPT_Capture_Config+0x36>
	{
		EPT0->PSCR=EPT_PSCR;
     554:	b5c2      	st.w      	r6, (r5, 0x8)
	}
	EPT0->CR=(EPT0->CR&0xf800fec0)|EPT_CNTMD_SELECTE_X|(0x0<<2)|(0x0<<3)|(0x0<<4)|CAP_CMD|EPT_CAPMD_SELECTE_X|(0X0<<16)|(0x0<<18)|(EPT_STOP_WRAP<<21)|
     556:	9503      	ld.w      	r0, (r5, 0xc)
     558:	109d      	lrw      	r4, 0x7ff013f	// 5cc <EPT_CPCR_Config+0x26>
     55a:	6811      	andn      	r0, r4
				EPT_LOAD_CMPA_RST_CMD|EPT_LOAD_CMPB_RST_CMD|EPT_LOAD_CMPC_RST_CMD|EPT_LOAD_CMPD_RST_CMD;
     55c:	9883      	ld.w      	r4, (r14, 0xc)
     55e:	6c10      	or      	r0, r4
     560:	9882      	ld.w      	r4, (r14, 0x8)
     562:	6c10      	or      	r0, r4
     564:	9881      	ld.w      	r4, (r14, 0x4)
     566:	6c10      	or      	r0, r4
     568:	9880      	ld.w      	r4, (r14, 0x0)
     56a:	6c10      	or      	r0, r4
     56c:	6c80      	or      	r2, r0
     56e:	6cc8      	or      	r3, r2
     570:	6c4c      	or      	r1, r3
	EPT0->CR=(EPT0->CR&0xf800fec0)|EPT_CNTMD_SELECTE_X|(0x0<<2)|(0x0<<3)|(0x0<<4)|CAP_CMD|EPT_CAPMD_SELECTE_X|(0X0<<16)|(0x0<<18)|(EPT_STOP_WRAP<<21)|
     572:	9864      	ld.w      	r3, (r14, 0x10)
     574:	4375      	lsli      	r3, r3, 21
				EPT_LOAD_CMPA_RST_CMD|EPT_LOAD_CMPB_RST_CMD|EPT_LOAD_CMPC_RST_CMD|EPT_LOAD_CMPD_RST_CMD;
     576:	6c4c      	or      	r1, r3
	EPT0->CR=(EPT0->CR&0xf800fec0)|EPT_CNTMD_SELECTE_X|(0x0<<2)|(0x0<<3)|(0x0<<4)|CAP_CMD|EPT_CAPMD_SELECTE_X|(0X0<<16)|(0x0<<18)|(EPT_STOP_WRAP<<21)|
     578:	b523      	st.w      	r1, (r5, 0xc)
}
     57a:	1405      	addi      	r14, r14, 20
     57c:	1484      	pop      	r4-r7

0000057e <EPT_SYNCR_Config>:
//EPT_SYNCR_EN:0~0X3F
//ReturnValue:NONE
/*************************************************************/  
void EPT_SYNCR_Config(EPT_Triggle_Mode_Type EPT_Triggle_X , EPT_SYNCUSR0_REARMTrig_Selecte_Type EPT_SYNCUSR0_REARMTrig_Selecte , EPT_TRGSRC0_ExtSync_Selected_Type EPT_TRGSRC0_ExtSync_Selected ,
					  EPT_TRGSRC1_ExtSync_Selected_Type EPT_TRGSRC1_ExtSync_Selected , U8_T EPT_SYNCR_EN)
{
     57e:	14c4      	push      	r4-r7
	EPT0->REGPROT = (0xA55A<<16) | 0xC73A;
     580:	108c      	lrw      	r4, 0x20000034	// 5b0 <EPT_CPCR_Config+0xa>
     582:	3680      	movi      	r6, 128
     584:	9480      	ld.w      	r4, (r4, 0x0)
     586:	6190      	addu      	r6, r4
     588:	10eb      	lrw      	r7, 0xa55ac73a	// 5b4 <EPT_CPCR_Config+0xe>
     58a:	b6fa      	st.w      	r7, (r6, 0x68)
	EPT0->SYNCR = (EPT0->SYNCR&0XC03F0000) |EPT_SYNCR_EN|EPT_Triggle_X|EPT_SYNCUSR0_REARMTrig_Selecte|EPT_TRGSRC0_ExtSync_Selected|EPT_TRGSRC1_ExtSync_Selected;
     58c:	10f1      	lrw      	r7, 0x3fc10000	// 5d0 <EPT_CPCR_Config+0x2a>
     58e:	94c4      	ld.w      	r6, (r4, 0x10)
     590:	2f00      	subi      	r7, 1
     592:	699d      	andn      	r6, r7
     594:	6cd8      	or      	r3, r6
     596:	6c8c      	or      	r2, r3
     598:	6c48      	or      	r1, r2
{
     59a:	d8ae0010 	ld.b      	r5, (r14, 0x10)
	EPT0->SYNCR = (EPT0->SYNCR&0XC03F0000) |EPT_SYNCR_EN|EPT_Triggle_X|EPT_SYNCUSR0_REARMTrig_Selecte|EPT_TRGSRC0_ExtSync_Selected|EPT_TRGSRC1_ExtSync_Selected;
     59e:	6c04      	or      	r0, r1
     5a0:	6c14      	or      	r0, r5
     5a2:	b404      	st.w      	r0, (r4, 0x10)
}
     5a4:	1484      	pop      	r4-r7

000005a6 <EPT_CPCR_Config>:
//ReturnValue:NONE
/*************************************************************/ 
//Fchop=PCLK/((CDIV+1)/8)  //Carrier frequency setting (CDIV>=1)
//Twidth=Tchop*OSPWTH //First pulse width setting  
void EPT_CPCR_Config(EPT_CPCR_CMD_Type EPT_CPCR_CMD , EPT_CPCR_Source_Selecte_Type EPT_CPCR_Source_X , EPT_CDUTY_Type EPT_CDUTY_X , U8_T EPT_CPCR_OSPWTH , U8_T EPT_CPCR_CDIV)
{
     5a6:	14c3      	push      	r4-r6
     5a8:	d8ae000c 	ld.b      	r5, (r14, 0xc)
     5ac:	0414      	br      	0x5d4	// 5d4 <EPT_CPCR_Config+0x2e>
     5ae:	0000      	bkpt
     5b0:	20000034 	.long	0x20000034
     5b4:	a55ac73a 	.long	0xa55ac73a
     5b8:	20000014 	.long	0x20000014
     5bc:	20000010 	.long	0x20000010
     5c0:	2000000c 	.long	0x2000000c
     5c4:	0007003f 	.long	0x0007003f
     5c8:	0000ff30 	.long	0x0000ff30
     5cc:	07ff013f 	.long	0x07ff013f
     5d0:	3fc10000 	.long	0x3fc10000
	if(EPT_CPCR_Source_X==EPT_CPCR_Source_TCLK)
     5d4:	3940      	cmpnei      	r1, 0
{
     5d6:	6d83      	mov      	r6, r0
     5d8:	0289      	lrw      	r4, 0x20000034	// 8b0 <EPT_TRGSRCX_Config+0x28>
     5da:	4010      	lsli      	r0, r0, 16
     5dc:	4362      	lsli      	r3, r3, 2
     5de:	45a7      	lsli      	r5, r5, 7
	if(EPT_CPCR_Source_X==EPT_CPCR_Source_TCLK)
     5e0:	0807      	bt      	0x5ee	// 5ee <EPT_CPCR_Config+0x48>
	{
		EPT0->CPCR=(EPT_CPCR_CMD<<16)|(EPT_CPCR_CDIV<<7)|(EPT_CPCR_OSPWTH<<2)|EPT_CDUTY_X|(0x00<<14);
     5e2:	6c0c      	or      	r0, r3
     5e4:	6c08      	or      	r0, r2
     5e6:	9420      	ld.w      	r1, (r4, 0x0)
     5e8:	6c14      	or      	r0, r5
     5ea:	b11e      	st.w      	r0, (r1, 0x78)
		if(EPT_CPCR_Source_X==EPT_CPCR_Source_TIN_BT1OUT)
		{
			EPT0->CEDR=(EPT0->CEDR&0xffffffcf)|(0x02<<4);
		}
	}
}
     5ec:	1483      	pop      	r4-r6
		EPT0->CPCR=(EPT_CPCR_CMD<<16)|(EPT_CPCR_CDIV<<7)|(EPT_CPCR_OSPWTH<<2)|EPT_CDUTY_X|(0x01<<14);
     5ee:	3aae      	bseti      	r2, 14
     5f0:	6c08      	or      	r0, r2
     5f2:	6c0c      	or      	r0, r3
     5f4:	9480      	ld.w      	r4, (r4, 0x0)
     5f6:	6c14      	or      	r0, r5
		if(EPT_CPCR_Source_X==EPT_CPCR_Source_TIN_BT0OUT)
     5f8:	3941      	cmpnei      	r1, 1
		EPT0->CPCR=(EPT_CPCR_CMD<<16)|(EPT_CPCR_CDIV<<7)|(EPT_CPCR_OSPWTH<<2)|EPT_CDUTY_X|(0x01<<14);
     5fa:	b41e      	st.w      	r0, (r4, 0x78)
		if(EPT_CPCR_Source_X==EPT_CPCR_Source_TIN_BT0OUT)
     5fc:	0807      	bt      	0x60a	// 60a <EPT_CPCR_Config+0x64>
			EPT0->CEDR=(EPT0->CEDR&0xffffffcf)|(0x01<<4);
     5fe:	9460      	ld.w      	r3, (r4, 0x0)
     600:	3b84      	bclri      	r3, 4
     602:	3b85      	bclri      	r3, 5
     604:	3ba4      	bseti      	r3, 4
			EPT0->CEDR=(EPT0->CEDR&0xffffffcf)|(0x02<<4);
     606:	b460      	st.w      	r3, (r4, 0x0)
}
     608:	07f2      	br      	0x5ec	// 5ec <EPT_CPCR_Config+0x46>
		if(EPT_CPCR_Source_X==EPT_CPCR_Source_TIN_BT1OUT)
     60a:	3942      	cmpnei      	r1, 2
     60c:	0bf0      	bt      	0x5ec	// 5ec <EPT_CPCR_Config+0x46>
			EPT0->CEDR=(EPT0->CEDR&0xffffffcf)|(0x02<<4);
     60e:	9460      	ld.w      	r3, (r4, 0x0)
     610:	3b84      	bclri      	r3, 4
     612:	3b85      	bclri      	r3, 5
     614:	3ba5      	bseti      	r3, 5
     616:	07f8      	br      	0x606	// 606 <EPT_CPCR_Config+0x60>

00000618 <EPT_DBCR_Config>:
//EPT_OUT_POLARITY_X:EPT_PA_PB_OUT_Direct,EPT_PA_OUT_Reverse,EPT_PB_OUT_Reverse,EPT_PA_PB_OUT_Reverse
//EPT_OUT_SWAP_X:EPT_PAtoCHX_PBtoCHY,EPT_PBtoCHX_PBtoCHY,EPT_PAtoCHX_PAtoCHY,EPT_PBtoCHX_PAtoCHY
//ReturnValue:NONE
/*************************************************************/   
void EPT_DBCR_Config(EPT_CHX_Selecte_Type EPT_CHX_Selecte , EPT_INSEL_Type EPT_INSEL_X , EPT_OUTSEL_Type EPT_OUTSEL_X , EPT_OUT_POLARITY_Type EPT_OUT_POLARITY_X , EPT_OUT_SWAP_Type EPT_OUT_SWAP_X)
{	
     618:	14c4      	push      	r4-r7
	if(EPT_CHX_Selecte==EPT_CHA_Selecte)
     61a:	3840      	cmpnei      	r0, 0
{	
     61c:	98c4      	ld.w      	r6, (r14, 0x10)
     61e:	029a      	lrw      	r4, 0x20000034	// 8b0 <EPT_TRGSRCX_Config+0x28>
	if(EPT_CHX_Selecte==EPT_CHA_Selecte)
     620:	0811      	bt      	0x642	// 642 <EPT_DBCR_Config+0x2a>
	{
		EPT0->DBCR=(EPT0->DBCR&0XFFFFFF00)|EPT_INSEL_X|EPT_OUTSEL_X|(EPT_OUT_POLARITY_X<<2)|(EPT_OUT_SWAP_X<<6);
     622:	94a0      	ld.w      	r5, (r4, 0x0)
     624:	95fa      	ld.w      	r7, (r5, 0x68)
     626:	30ff      	movi      	r0, 255
     628:	69c1      	andn      	r7, r0
     62a:	46c6      	lsli      	r6, r6, 6
     62c:	6d9c      	or      	r6, r7
     62e:	6c98      	or      	r2, r6
     630:	4362      	lsli      	r3, r3, 2
	{
		EPT0->DBCR=(EPT0->DBCR&0XFFFF00FF)|EPT_INSEL_X|EPT_OUTSEL_X|(EPT_OUT_POLARITY_X<<10)|(EPT_OUT_SWAP_X<<14);
	}
	else if(EPT_CHX_Selecte==EPT_CHC_Selecte)
	{
		EPT0->DBCR=(EPT0->DBCR&0XFF00FFFF)|EPT_INSEL_X|EPT_OUTSEL_X|(EPT_OUT_POLARITY_X<<18)|(EPT_OUT_SWAP_X<<22);
     632:	6cc8      	or      	r3, r2
     634:	6c4c      	or      	r1, r3
     636:	b53a      	st.w      	r1, (r5, 0x68)
	}
	EPT0->DBCR|=0x01<<24;
     638:	9440      	ld.w      	r2, (r4, 0x0)
     63a:	927a      	ld.w      	r3, (r2, 0x68)
     63c:	3bb8      	bseti      	r3, 24
     63e:	b27a      	st.w      	r3, (r2, 0x68)
}
     640:	1484      	pop      	r4-r7
	else if(EPT_CHX_Selecte==EPT_CHB_Selecte)
     642:	3841      	cmpnei      	r0, 1
     644:	080b      	bt      	0x65a	// 65a <EPT_DBCR_Config+0x42>
		EPT0->DBCR=(EPT0->DBCR&0XFFFF00FF)|EPT_INSEL_X|EPT_OUTSEL_X|(EPT_OUT_POLARITY_X<<10)|(EPT_OUT_SWAP_X<<14);
     646:	94a0      	ld.w      	r5, (r4, 0x0)
     648:	30ff      	movi      	r0, 255
     64a:	95fa      	ld.w      	r7, (r5, 0x68)
     64c:	4008      	lsli      	r0, r0, 8
     64e:	69c1      	andn      	r7, r0
     650:	46ce      	lsli      	r6, r6, 14
     652:	6d9c      	or      	r6, r7
     654:	6c98      	or      	r2, r6
     656:	436a      	lsli      	r3, r3, 10
     658:	07ed      	br      	0x632	// 632 <EPT_DBCR_Config+0x1a>
	else if(EPT_CHX_Selecte==EPT_CHC_Selecte)
     65a:	3842      	cmpnei      	r0, 2
     65c:	0bee      	bt      	0x638	// 638 <EPT_DBCR_Config+0x20>
		EPT0->DBCR=(EPT0->DBCR&0XFF00FFFF)|EPT_INSEL_X|EPT_OUTSEL_X|(EPT_OUT_POLARITY_X<<18)|(EPT_OUT_SWAP_X<<22);
     65e:	94a0      	ld.w      	r5, (r4, 0x0)
     660:	37ff      	movi      	r7, 255
     662:	951a      	ld.w      	r0, (r5, 0x68)
     664:	47f0      	lsli      	r7, r7, 16
     666:	681d      	andn      	r0, r7
     668:	46d6      	lsli      	r6, r6, 22
     66a:	6c18      	or      	r0, r6
     66c:	6c80      	or      	r2, r0
     66e:	4372      	lsli      	r3, r3, 18
     670:	07e1      	br      	0x632	// 632 <EPT_DBCR_Config+0x1a>

00000672 <EPT_DB_CLK_Config>:
//ReturnValue:NONE
/*************************************************************/   
//Fdbclk=Fhclk/(DPSC+1)
void EPT_DB_CLK_Config(U16_T DPSC , U16_T DTR , U16_T DTF)
{
	EPT0->DPSCR=DPSC;
     672:	036f      	lrw      	r3, 0x20000034	// 8b0 <EPT_TRGSRCX_Config+0x28>
     674:	9360      	ld.w      	r3, (r3, 0x0)
     676:	b31b      	st.w      	r0, (r3, 0x6c)
	EPT0->DBDTR=DTR;
     678:	b33c      	st.w      	r1, (r3, 0x70)
	EPT0->DBDTF=DTF;
     67a:	b35d      	st.w      	r2, (r3, 0x74)
}
     67c:	783c      	jmp      	r15

0000067e <EPT_PWMX_Output_Control>:
							 EPT_PWM_CAU_Output_Type EPT_PWM_CAU_Event_Output , EPT_PWM_CAD_Output_Type EPT_PWM_CAD_Event_Output ,
							 EPT_PWM_CBU_Output_Type EPT_PWM_CBU_Event_Output , EPT_PWM_CBD_Output_Type EPT_PWM_CBD_Event_Output ,
							 EPT_PWM_T1U_Output_Type EPT_PWM_T1U_Event_Output , EPT_PWM_T1D_Output_Type EPT_PWM_T1D_Event_Output ,
							 EPT_PWM_T2U_Output_Type EPT_PWM_T2U_Event_Output , EPT_PWM_T2D_Output_Type EPT_PWM_T2D_Event_Output 
							 )
{
     67e:	14c4      	push      	r4-r7
     680:	1425      	subi      	r14, r14, 20
     682:	9889      	ld.w      	r4, (r14, 0x24)
     684:	b880      	st.w      	r4, (r14, 0x0)
     686:	988a      	ld.w      	r4, (r14, 0x28)
     688:	b881      	st.w      	r4, (r14, 0x4)
     68a:	988b      	ld.w      	r4, (r14, 0x2c)
     68c:	b882      	st.w      	r4, (r14, 0x8)
     68e:	988c      	ld.w      	r4, (r14, 0x30)
     690:	b883      	st.w      	r4, (r14, 0xc)
	if(EPT_PWMX_Selecte==EPT_PWMA)
     692:	3840      	cmpnei      	r0, 0
{
     694:	988d      	ld.w      	r4, (r14, 0x34)
     696:	b884      	st.w      	r4, (r14, 0x10)
     698:	98ce      	ld.w      	r6, (r14, 0x38)
     69a:	98ef      	ld.w      	r7, (r14, 0x3c)
     69c:	98b0      	ld.w      	r5, (r14, 0x40)
     69e:	9891      	ld.w      	r4, (r14, 0x44)
	if(EPT_PWMX_Selecte==EPT_PWMA)
     6a0:	0816      	bt      	0x6cc	// 6cc <EPT_PWMX_Output_Control+0x4e>
	{
		EPT0->AQCRA=EPT_CA_Selecte_X|EPT_CB_Selecte_X|EPT_PWM_ZRO_Event_Output|EPT_PWM_PRD_Event_Output|EPT_PWM_CAU_Event_Output|EPT_PWM_CAD_Event_Output|
					EPT_PWM_CBU_Event_Output|EPT_PWM_CBD_Event_Output|EPT_PWM_T1U_Event_Output|EPT_PWM_T1D_Event_Output|EPT_PWM_T2U_Event_Output|EPT_PWM_T2D_Event_Output;
     6a2:	6d14      	or      	r4, r5
     6a4:	6d1c      	or      	r4, r7
     6a6:	98a4      	ld.w      	r5, (r14, 0x10)
     6a8:	6d18      	or      	r4, r6
     6aa:	6d14      	or      	r4, r5
     6ac:	98a3      	ld.w      	r5, (r14, 0xc)
     6ae:	6d14      	or      	r4, r5
     6b0:	98a2      	ld.w      	r5, (r14, 0x8)
     6b2:	6d14      	or      	r4, r5
     6b4:	98a1      	ld.w      	r5, (r14, 0x4)
     6b6:	6d14      	or      	r4, r5
     6b8:	98a0      	ld.w      	r5, (r14, 0x0)
     6ba:	6d14      	or      	r4, r5
     6bc:	6cd0      	or      	r3, r4
		EPT0->AQCRA=EPT_CA_Selecte_X|EPT_CB_Selecte_X|EPT_PWM_ZRO_Event_Output|EPT_PWM_PRD_Event_Output|EPT_PWM_CAU_Event_Output|EPT_PWM_CAD_Event_Output|
     6be:	131d      	lrw      	r0, 0x20000034	// 8b0 <EPT_TRGSRCX_Config+0x28>
					EPT_PWM_CBU_Event_Output|EPT_PWM_CBD_Event_Output|EPT_PWM_T1U_Event_Output|EPT_PWM_T1D_Event_Output|EPT_PWM_T2U_Event_Output|EPT_PWM_T2D_Event_Output;
     6c0:	6c8c      	or      	r2, r3
		EPT0->AQCRA=EPT_CA_Selecte_X|EPT_CB_Selecte_X|EPT_PWM_ZRO_Event_Output|EPT_PWM_PRD_Event_Output|EPT_PWM_CAU_Event_Output|EPT_PWM_CAD_Event_Output|
     6c2:	9000      	ld.w      	r0, (r0, 0x0)
					EPT_PWM_CBU_Event_Output|EPT_PWM_CBD_Event_Output|EPT_PWM_T1U_Event_Output|EPT_PWM_T1D_Event_Output|EPT_PWM_T2U_Event_Output|EPT_PWM_T2D_Event_Output;
     6c4:	6c48      	or      	r1, r2
		EPT0->AQCRA=EPT_CA_Selecte_X|EPT_CB_Selecte_X|EPT_PWM_ZRO_Event_Output|EPT_PWM_PRD_Event_Output|EPT_PWM_CAU_Event_Output|EPT_PWM_CAD_Event_Output|
     6c6:	b032      	st.w      	r1, (r0, 0x48)
	{
		EPT0->AQCRD=EPT_CA_Selecte_X|EPT_CB_Selecte_X|EPT_PWM_ZRO_Event_Output|EPT_PWM_PRD_Event_Output|EPT_PWM_CAU_Event_Output|EPT_PWM_CAD_Event_Output|
					EPT_PWM_CBU_Event_Output|EPT_PWM_CBD_Event_Output|EPT_PWM_T1U_Event_Output|EPT_PWM_T1D_Event_Output|EPT_PWM_T2U_Event_Output|EPT_PWM_T2D_Event_Output;
	}
	
}
     6c8:	1405      	addi      	r14, r14, 20
     6ca:	1484      	pop      	r4-r7
	else if(EPT_PWMX_Selecte==EPT_PWMB)
     6cc:	3841      	cmpnei      	r0, 1
     6ce:	0815      	bt      	0x6f8	// 6f8 <EPT_PWMX_Output_Control+0x7a>
					EPT_PWM_CBU_Event_Output|EPT_PWM_CBD_Event_Output|EPT_PWM_T1U_Event_Output|EPT_PWM_T1D_Event_Output|EPT_PWM_T2U_Event_Output|EPT_PWM_T2D_Event_Output;
     6d0:	6d14      	or      	r4, r5
     6d2:	6d1c      	or      	r4, r7
     6d4:	98a4      	ld.w      	r5, (r14, 0x10)
     6d6:	6d18      	or      	r4, r6
     6d8:	6d14      	or      	r4, r5
     6da:	98a3      	ld.w      	r5, (r14, 0xc)
     6dc:	6d14      	or      	r4, r5
     6de:	98a2      	ld.w      	r5, (r14, 0x8)
     6e0:	6d14      	or      	r4, r5
     6e2:	98a1      	ld.w      	r5, (r14, 0x4)
     6e4:	6d14      	or      	r4, r5
     6e6:	98a0      	ld.w      	r5, (r14, 0x0)
     6e8:	6d14      	or      	r4, r5
     6ea:	6cd0      	or      	r3, r4
		EPT0->AQCRB=EPT_CA_Selecte_X|EPT_CB_Selecte_X|EPT_PWM_ZRO_Event_Output|EPT_PWM_PRD_Event_Output|EPT_PWM_CAU_Event_Output|EPT_PWM_CAD_Event_Output|
     6ec:	1311      	lrw      	r0, 0x20000034	// 8b0 <EPT_TRGSRCX_Config+0x28>
					EPT_PWM_CBU_Event_Output|EPT_PWM_CBD_Event_Output|EPT_PWM_T1U_Event_Output|EPT_PWM_T1D_Event_Output|EPT_PWM_T2U_Event_Output|EPT_PWM_T2D_Event_Output;
     6ee:	6c8c      	or      	r2, r3
		EPT0->AQCRB=EPT_CA_Selecte_X|EPT_CB_Selecte_X|EPT_PWM_ZRO_Event_Output|EPT_PWM_PRD_Event_Output|EPT_PWM_CAU_Event_Output|EPT_PWM_CAD_Event_Output|
     6f0:	9000      	ld.w      	r0, (r0, 0x0)
					EPT_PWM_CBU_Event_Output|EPT_PWM_CBD_Event_Output|EPT_PWM_T1U_Event_Output|EPT_PWM_T1D_Event_Output|EPT_PWM_T2U_Event_Output|EPT_PWM_T2D_Event_Output;
     6f2:	6c48      	or      	r1, r2
		EPT0->AQCRB=EPT_CA_Selecte_X|EPT_CB_Selecte_X|EPT_PWM_ZRO_Event_Output|EPT_PWM_PRD_Event_Output|EPT_PWM_CAU_Event_Output|EPT_PWM_CAD_Event_Output|
     6f4:	b033      	st.w      	r1, (r0, 0x4c)
     6f6:	07e9      	br      	0x6c8	// 6c8 <EPT_PWMX_Output_Control+0x4a>
	else if(EPT_PWMX_Selecte==EPT_PWMC)
     6f8:	3842      	cmpnei      	r0, 2
     6fa:	0815      	bt      	0x724	// 724 <EPT_PWMX_Output_Control+0xa6>
					EPT_PWM_CBU_Event_Output|EPT_PWM_CBD_Event_Output|EPT_PWM_T1U_Event_Output|EPT_PWM_T1D_Event_Output|EPT_PWM_T2U_Event_Output|EPT_PWM_T2D_Event_Output;
     6fc:	6d14      	or      	r4, r5
     6fe:	6d1c      	or      	r4, r7
     700:	98a4      	ld.w      	r5, (r14, 0x10)
     702:	6d18      	or      	r4, r6
     704:	6d14      	or      	r4, r5
     706:	98a3      	ld.w      	r5, (r14, 0xc)
     708:	6d14      	or      	r4, r5
     70a:	98a2      	ld.w      	r5, (r14, 0x8)
     70c:	6d14      	or      	r4, r5
     70e:	98a1      	ld.w      	r5, (r14, 0x4)
     710:	6d14      	or      	r4, r5
     712:	98a0      	ld.w      	r5, (r14, 0x0)
     714:	6d14      	or      	r4, r5
     716:	6cd0      	or      	r3, r4
		EPT0->AQCRC=EPT_CA_Selecte_X|EPT_CB_Selecte_X|EPT_PWM_ZRO_Event_Output|EPT_PWM_PRD_Event_Output|EPT_PWM_CAU_Event_Output|EPT_PWM_CAD_Event_Output|
     718:	1306      	lrw      	r0, 0x20000034	// 8b0 <EPT_TRGSRCX_Config+0x28>
					EPT_PWM_CBU_Event_Output|EPT_PWM_CBD_Event_Output|EPT_PWM_T1U_Event_Output|EPT_PWM_T1D_Event_Output|EPT_PWM_T2U_Event_Output|EPT_PWM_T2D_Event_Output;
     71a:	6c8c      	or      	r2, r3
		EPT0->AQCRC=EPT_CA_Selecte_X|EPT_CB_Selecte_X|EPT_PWM_ZRO_Event_Output|EPT_PWM_PRD_Event_Output|EPT_PWM_CAU_Event_Output|EPT_PWM_CAD_Event_Output|
     71c:	9000      	ld.w      	r0, (r0, 0x0)
					EPT_PWM_CBU_Event_Output|EPT_PWM_CBD_Event_Output|EPT_PWM_T1U_Event_Output|EPT_PWM_T1D_Event_Output|EPT_PWM_T2U_Event_Output|EPT_PWM_T2D_Event_Output;
     71e:	6c48      	or      	r1, r2
		EPT0->AQCRC=EPT_CA_Selecte_X|EPT_CB_Selecte_X|EPT_PWM_ZRO_Event_Output|EPT_PWM_PRD_Event_Output|EPT_PWM_CAU_Event_Output|EPT_PWM_CAD_Event_Output|
     720:	b034      	st.w      	r1, (r0, 0x50)
     722:	07d3      	br      	0x6c8	// 6c8 <EPT_PWMX_Output_Control+0x4a>
	else if(EPT_PWMX_Selecte==EPT_PWMD)
     724:	3843      	cmpnei      	r0, 3
     726:	0bd1      	bt      	0x6c8	// 6c8 <EPT_PWMX_Output_Control+0x4a>
					EPT_PWM_CBU_Event_Output|EPT_PWM_CBD_Event_Output|EPT_PWM_T1U_Event_Output|EPT_PWM_T1D_Event_Output|EPT_PWM_T2U_Event_Output|EPT_PWM_T2D_Event_Output;
     728:	6d14      	or      	r4, r5
     72a:	6d1c      	or      	r4, r7
     72c:	98a4      	ld.w      	r5, (r14, 0x10)
     72e:	6d18      	or      	r4, r6
     730:	6d14      	or      	r4, r5
     732:	98a3      	ld.w      	r5, (r14, 0xc)
     734:	6d14      	or      	r4, r5
     736:	98a2      	ld.w      	r5, (r14, 0x8)
     738:	6d14      	or      	r4, r5
     73a:	98a1      	ld.w      	r5, (r14, 0x4)
     73c:	6d14      	or      	r4, r5
     73e:	98a0      	ld.w      	r5, (r14, 0x0)
     740:	6d14      	or      	r4, r5
     742:	6cd0      	or      	r3, r4
		EPT0->AQCRD=EPT_CA_Selecte_X|EPT_CB_Selecte_X|EPT_PWM_ZRO_Event_Output|EPT_PWM_PRD_Event_Output|EPT_PWM_CAU_Event_Output|EPT_PWM_CAD_Event_Output|
     744:	121b      	lrw      	r0, 0x20000034	// 8b0 <EPT_TRGSRCX_Config+0x28>
					EPT_PWM_CBU_Event_Output|EPT_PWM_CBD_Event_Output|EPT_PWM_T1U_Event_Output|EPT_PWM_T1D_Event_Output|EPT_PWM_T2U_Event_Output|EPT_PWM_T2D_Event_Output;
     746:	6c8c      	or      	r2, r3
		EPT0->AQCRD=EPT_CA_Selecte_X|EPT_CB_Selecte_X|EPT_PWM_ZRO_Event_Output|EPT_PWM_PRD_Event_Output|EPT_PWM_CAU_Event_Output|EPT_PWM_CAD_Event_Output|
     748:	9000      	ld.w      	r0, (r0, 0x0)
					EPT_PWM_CBU_Event_Output|EPT_PWM_CBD_Event_Output|EPT_PWM_T1U_Event_Output|EPT_PWM_T1D_Event_Output|EPT_PWM_T2U_Event_Output|EPT_PWM_T2D_Event_Output;
     74a:	6c48      	or      	r1, r2
		EPT0->AQCRD=EPT_CA_Selecte_X|EPT_CB_Selecte_X|EPT_PWM_ZRO_Event_Output|EPT_PWM_PRD_Event_Output|EPT_PWM_CAU_Event_Output|EPT_PWM_CAD_Event_Output|
     74c:	b035      	st.w      	r1, (r0, 0x54)
}
     74e:	07bd      	br      	0x6c8	// 6c8 <EPT_PWMX_Output_Control+0x4a>

00000750 <EPT_Tevent_Selecte>:
//EPT_T2_Selecte:0->SYNCUSR5,1->EP0,2->EP1,3->EP2,4->EP3,5->EP4,6->EP5,7->EP6
//ReturnValue:NONE
/*************************************************************/
void EPT_Tevent_Selecte( U8_T EPT_T1_Selecte, U8_T EPT_T2_Selecte)
{
	EPT0->AQTSCR=EPT_T1_Selecte|(EPT_T2_Selecte<<4);
     750:	4124      	lsli      	r1, r1, 4
     752:	1278      	lrw      	r3, 0x20000034	// 8b0 <EPT_TRGSRCX_Config+0x28>
     754:	6c04      	or      	r0, r1
     756:	9360      	ld.w      	r3, (r3, 0x0)
     758:	b316      	st.w      	r0, (r3, 0x58)
}
     75a:	783c      	jmp      	r15

0000075c <EPT_PHSEN_Config>:
//EPT_PHSDIR:EPT_PHSDIR_increase,EPT_PHSEN_decrease
//PHSR:0~0xffff
//ReturnValue:NONE
/*************************************************************/  
void EPT_PHSEN_Config(EPT_PHSEN_CMD_Type EPT_PHSEN_CMD , EPT_PHSDIR_Type EPT_PHSDIR , U16_T PHSR)    
{
     75c:	14c1      	push      	r4
	EPT0->CR=(EPT0->CR&0xffffff7f)|EPT_PHSEN_CMD;
     75e:	1275      	lrw      	r3, 0x20000034	// 8b0 <EPT_TRGSRCX_Config+0x28>
	EPT0->PHSR=PHSR|EPT_PHSDIR;
     760:	6c84      	or      	r2, r1
	EPT0->CR=(EPT0->CR&0xffffff7f)|EPT_PHSEN_CMD;
     762:	9380      	ld.w      	r4, (r3, 0x0)
     764:	9463      	ld.w      	r3, (r4, 0xc)
     766:	3b87      	bclri      	r3, 7
     768:	6c0c      	or      	r0, r3
     76a:	b403      	st.w      	r0, (r4, 0xc)
	EPT0->PHSR=PHSR|EPT_PHSDIR;
     76c:	b44a      	st.w      	r2, (r4, 0x28)
}
     76e:	1481      	pop      	r4

00000770 <EPT_PRDR_CMPA_CMPB_CMPC_CMPD_Config>:
//EPT_CMPB_Value:0~0xff
//EPT_CMPC_Value:0~0xff
//EPT_CMPD_Value:0~0xff
/*************************************************************/ 
void EPT_PRDR_CMPA_CMPB_CMPC_CMPD_Config(U16_T EPT_PRDR_Value , U16_T EPT_CMPA_Value , U16_T EPT_CMPB_Value , U16_T EPT_CMPC_Value , U16_T EPT_CMPD_Value)
{
     770:	14c2      	push      	r4-r5
	EPT0->PRDR=EPT_PRDR_Value;
     772:	1290      	lrw      	r4, 0x20000034	// 8b0 <EPT_TRGSRCX_Config+0x28>
{
     774:	d8ae1004 	ld.h      	r5, (r14, 0x8)
	EPT0->PRDR=EPT_PRDR_Value;
     778:	9480      	ld.w      	r4, (r4, 0x0)
     77a:	b409      	st.w      	r0, (r4, 0x24)
	EPT0->CMPA=EPT_CMPA_Value;
     77c:	b42b      	st.w      	r1, (r4, 0x2c)
	EPT0->CMPB=EPT_CMPB_Value;
     77e:	b44c      	st.w      	r2, (r4, 0x30)
	EPT0->CMPC=EPT_CMPC_Value;
     780:	b46d      	st.w      	r3, (r4, 0x34)
	EPT0->CMPD=EPT_CMPD_Value;
     782:	b4ae      	st.w      	r5, (r4, 0x38)
}
     784:	1482      	pop      	r4-r5

00000786 <EPT_SYNCR_RearmClr>:
//EPT_REARMX:EPT_REARM_SYNCEN0,EPT_REARM_SYNCEN1,EPT_REARM_SYNCEN2,EPT_REARM_SYNCEN3,EPT_REARM_SYNCEN4,EPT_REARM_SYNCEN5
//ReturnValue:NONE
/*************************************************************/  
void EPT_SYNCR_RearmClr(EPT_REARMX_Type EPT_REARMX )
{
	EPT0->REGPROT = (0xA55A<<16) | 0xC73A;
     786:	126b      	lrw      	r3, 0x20000034	// 8b0 <EPT_TRGSRCX_Config+0x28>
     788:	122b      	lrw      	r1, 0xa55ac73a	// 8b4 <EPT_TRGSRCX_Config+0x2c>
     78a:	9340      	ld.w      	r2, (r3, 0x0)
     78c:	3380      	movi      	r3, 128
     78e:	60c8      	addu      	r3, r2
     790:	b33a      	st.w      	r1, (r3, 0x68)
	EPT0->SYNCR = (EPT0->SYNCR&0X3FC0FFFF)|EPT_REARMX;
     792:	122a      	lrw      	r1, 0x3fc10000	// 8b8 <EPT_TRGSRCX_Config+0x30>
     794:	9264      	ld.w      	r3, (r2, 0x10)
     796:	2900      	subi      	r1, 1
     798:	68c4      	and      	r3, r1
     79a:	6c0c      	or      	r0, r3
     79c:	b204      	st.w      	r0, (r2, 0x10)
}
     79e:	783c      	jmp      	r15

000007a0 <EPT_Caputure_Rearm>:
//ReturnValue:NONE
/*************************************************************/  
//EPT Caputer Rearm:clear counter enable CAPLDEN automatic
void EPT_Caputure_Rearm(void)
{
	EPT0->CR=(EPT0->CR&0xfffdffff)|(0x01<<19);
     7a0:	1264      	lrw      	r3, 0x20000034	// 8b0 <EPT_TRGSRCX_Config+0x28>
     7a2:	9340      	ld.w      	r2, (r3, 0x0)
     7a4:	9263      	ld.w      	r3, (r2, 0xc)
     7a6:	3b91      	bclri      	r3, 17
     7a8:	3b93      	bclri      	r3, 19
     7aa:	3bb3      	bseti      	r3, 19
     7ac:	b263      	st.w      	r3, (r2, 0xc)
}
     7ae:	783c      	jmp      	r15

000007b0 <EPT_Globle_Eventload_Config>:
//GLDCFG_EN:0~0x3fff
//ReturnValue:NONE
/*************************************************************/  
//PRDR/CMPA/CMPB/CMPC/CMPD/DBDTR/DBCR/AQCRA/AQCRB/AQCRD/AQCSF/EMPSR load config
void EPT_Globle_Eventload_Config(EPT_GLD_OneShot_CMD_Type EPT_GLD_OneShot_CMD , EPT_GLDMD_Selecte_Type EPT_GLDMD_Selecte_X , U8_T GLDPRD_CNT , U16_T GLDCFG_EN)
{
     7b0:	14c1      	push      	r4
	EPT0->GLDCR=0X01|EPT_GLD_OneShot_CMD|EPT_GLDMD_Selecte_X|(GLDPRD_CNT<<7);
     7b2:	39a0      	bseti      	r1, 0
     7b4:	6c40      	or      	r1, r0
     7b6:	4247      	lsli      	r2, r2, 7
     7b8:	119e      	lrw      	r4, 0x20000034	// 8b0 <EPT_TRGSRCX_Config+0x28>
     7ba:	6c48      	or      	r1, r2
     7bc:	9480      	ld.w      	r4, (r4, 0x0)
     7be:	b425      	st.w      	r1, (r4, 0x14)
	EPT0->GLDCFG=GLDCFG_EN;
     7c0:	b466      	st.w      	r3, (r4, 0x18)
	/*if(EPT_GLDMD_Selecte_X==EPT_GLDMD_Selecte_SW)
	{
		EPT0->REGPROT = (0xA55A<<16) | 0xC73A;
		EPT0->GLDCR2=0X02;
	}*/
}
     7c2:	1481      	pop      	r4

000007c4 <EPT_Globle_SwLoad_CMD>:
//PRDR/CMPA/CMPB/CMPC/CMPD/DBDTR/DBCR/AQCRA/AQCRB/AQCRD/AQCSF/EMPSR load config
void EPT_Globle_SwLoad_CMD(void)
{
	//EPT0->GLDCR=0X01|EPT_GLDMD_Selecte_SW;
	//EPT0->GLDCFG=GLDCFG_EN;
	EPT0->REGPROT = (0xA55A<<16) | 0xC73A;
     7c4:	117b      	lrw      	r3, 0x20000034	// 8b0 <EPT_TRGSRCX_Config+0x28>
     7c6:	3280      	movi      	r2, 128
     7c8:	9360      	ld.w      	r3, (r3, 0x0)
     7ca:	608c      	addu      	r2, r3
     7cc:	113a      	lrw      	r1, 0xa55ac73a	// 8b4 <EPT_TRGSRCX_Config+0x2c>
     7ce:	b23a      	st.w      	r1, (r2, 0x68)
	EPT0->GLDCR2=0X03;
     7d0:	3203      	movi      	r2, 3
     7d2:	b347      	st.w      	r2, (r3, 0x1c)
}
     7d4:	783c      	jmp      	r15

000007d6 <EPT_PRDR_EventLoad_Config>:
//EPT_PRDR_EventLoad_x:EPT_PRDR_EventLoad_PEND,EPT_PRDR_EventLoad_ExiLoad_SYNC,EPT_PRDR_EventLoad_Zro_ExiLoad_SYNC,
//EPT_PRDR_EventLoad_Immediate
/*************************************************************/ 
void EPT_PRDR_EventLoad_Config(EPT_PRDR_EventLoad_Type EPT_PRDR_EventLoad_x)
{
	EPT0->GLDCR&=0XFFFFFFFE;	//Use independent configurations
     7d6:	1177      	lrw      	r3, 0x20000034	// 8b0 <EPT_TRGSRCX_Config+0x28>
     7d8:	9340      	ld.w      	r2, (r3, 0x0)
     7da:	9265      	ld.w      	r3, (r2, 0x14)
     7dc:	3b80      	bclri      	r3, 0
     7de:	b265      	st.w      	r3, (r2, 0x14)
	EPT0->CR=(EPT0->CR&0xffffffcf)|EPT_PRDR_EventLoad_x;
     7e0:	9263      	ld.w      	r3, (r2, 0xc)
     7e2:	3b84      	bclri      	r3, 4
     7e4:	3b85      	bclri      	r3, 5
     7e6:	6c0c      	or      	r0, r3
     7e8:	b203      	st.w      	r0, (r2, 0xc)
}
     7ea:	783c      	jmp      	r15

000007ec <EPT_CMP_EventLoad_Config>:
//EPT_CMPX_EventLoad_PRD,EPT_CMPX_EventLoad_ExiLoad_SYNC
/*************************************************************/ 
//Unified load register:CMPA,CMPB,CMPC,CMPD
void EPT_CMP_EventLoad_Config(EPT_CMPX_EventLoad_Type EPT_CMPX_EventLoad_x)
{
	EPT0->GLDCR&=0XFFFFFFFE;		//Use independent configurations
     7ec:	1171      	lrw      	r3, 0x20000034	// 8b0 <EPT_TRGSRCX_Config+0x28>
	if(EPT_CMPX_EventLoad_x==EPT_CMPX_EventLoad_DIS)
     7ee:	3840      	cmpnei      	r0, 0
	EPT0->GLDCR&=0XFFFFFFFE;		//Use independent configurations
     7f0:	9360      	ld.w      	r3, (r3, 0x0)
     7f2:	9345      	ld.w      	r2, (r3, 0x14)
     7f4:	3a80      	bclri      	r2, 0
     7f6:	b345      	st.w      	r2, (r3, 0x14)
	if(EPT_CMPX_EventLoad_x==EPT_CMPX_EventLoad_DIS)
     7f8:	0803      	bt      	0x7fe	// 7fe <EPT_CMP_EventLoad_Config+0x12>
	{
		EPT0->CMPLDR=0;
     7fa:	b30f      	st.w      	r0, (r3, 0x3c)
	}
	else if(EPT_CMPX_EventLoad_x==EPT_CMPX_EventLoad_ExiLoad_SYNC)
	{
		EPT0->CMPLDR=0x8240;
	}
}
     7fc:	783c      	jmp      	r15
	else if(EPT_CMPX_EventLoad_x==EPT_CMPX_EventLoad_Immediate)
     7fe:	3841      	cmpnei      	r0, 1
     800:	0804      	bt      	0x808	// 808 <EPT_CMP_EventLoad_Config+0x1c>
		EPT0->CMPLDR=0xf;
     802:	320f      	movi      	r2, 15
		EPT0->CMPLDR=0x8240;
     804:	b34f      	st.w      	r2, (r3, 0x3c)
}
     806:	07fb      	br      	0x7fc	// 7fc <EPT_CMP_EventLoad_Config+0x10>
	else if(EPT_CMPX_EventLoad_x==EPT_CMPX_EventLoad_ZRO)
     808:	3842      	cmpnei      	r0, 2
     80a:	0803      	bt      	0x810	// 810 <EPT_CMP_EventLoad_Config+0x24>
		EPT0->CMPLDR=0x2410;	
     80c:	114c      	lrw      	r2, 0x2410	// 8bc <EPT_TRGSRCX_Config+0x34>
     80e:	07fb      	br      	0x804	// 804 <EPT_CMP_EventLoad_Config+0x18>
	else if(EPT_CMPX_EventLoad_x==EPT_CMPX_EventLoad_PRD)
     810:	3843      	cmpnei      	r0, 3
     812:	0803      	bt      	0x818	// 818 <EPT_CMP_EventLoad_Config+0x2c>
		EPT0->CMPLDR=0x4920;
     814:	114b      	lrw      	r2, 0x4920	// 8c0 <EPT_TRGSRCX_Config+0x38>
     816:	07f7      	br      	0x804	// 804 <EPT_CMP_EventLoad_Config+0x18>
	else if(EPT_CMPX_EventLoad_x==EPT_CMPX_EventLoad_ExiLoad_SYNC)
     818:	3844      	cmpnei      	r0, 4
     81a:	0bf1      	bt      	0x7fc	// 7fc <EPT_CMP_EventLoad_Config+0x10>
		EPT0->CMPLDR=0x8240;
     81c:	114a      	lrw      	r2, 0x8240	// 8c4 <EPT_TRGSRCX_Config+0x3c>
     81e:	07f3      	br      	0x804	// 804 <EPT_CMP_EventLoad_Config+0x18>

00000820 <EPT_AQCR_Eventload_Config>:
//EPT_AQCRX_EventLoad_PRD,EPT_AQCRX_EventLoad_ExiLoad_SYNC
/*************************************************************/ 
//Unified load register:AQCRA,AQCRB,AQCRC,AQCRD
void EPT_AQCR_Eventload_Config(EPT_AQCRX_EventLoad_Type EPT_AQCRX_EventLoad_X)
{
	EPT0->GLDCR&=0XFFFFFFFE;		//Use independent configurations
     820:	1164      	lrw      	r3, 0x20000034	// 8b0 <EPT_TRGSRCX_Config+0x28>
	if(EPT_AQCRX_EventLoad_X==EPT_AQCRX_EventLoad_DIS)
     822:	3840      	cmpnei      	r0, 0
	EPT0->GLDCR&=0XFFFFFFFE;		//Use independent configurations
     824:	9360      	ld.w      	r3, (r3, 0x0)
     826:	9345      	ld.w      	r2, (r3, 0x14)
     828:	3a80      	bclri      	r2, 0
     82a:	b345      	st.w      	r2, (r3, 0x14)
	if(EPT_AQCRX_EventLoad_X==EPT_AQCRX_EventLoad_DIS)
     82c:	0803      	bt      	0x832	// 832 <EPT_AQCR_Eventload_Config+0x12>
	{
		EPT0->AQLDR=0;
     82e:	b311      	st.w      	r0, (r3, 0x44)
	}
	else if(EPT_AQCRX_EventLoad_X==EPT_AQCRX_EventLoad_ExiLoad_SYNC)
	{
		EPT0->AQLDR=0x9090;
	}
}
     830:	783c      	jmp      	r15
	else if(EPT_AQCRX_EventLoad_X==EPT_AQCRX_EventLoad_Immediate)
     832:	3841      	cmpnei      	r0, 1
     834:	0804      	bt      	0x83c	// 83c <EPT_AQCR_Eventload_Config+0x1c>
		EPT0->AQLDR=0x303;
     836:	1145      	lrw      	r2, 0x303	// 8c8 <EPT_TRGSRCX_Config+0x40>
		EPT0->AQLDR=0x9090;
     838:	b351      	st.w      	r2, (r3, 0x44)
}
     83a:	07fb      	br      	0x830	// 830 <EPT_AQCR_Eventload_Config+0x10>
	else if(EPT_AQCRX_EventLoad_X==EPT_AQCRX_EventLoad_ZRO)
     83c:	3842      	cmpnei      	r0, 2
     83e:	0803      	bt      	0x844	// 844 <EPT_AQCR_Eventload_Config+0x24>
		EPT0->AQLDR=0x2424;	
     840:	1143      	lrw      	r2, 0x2424	// 8cc <EPT_TRGSRCX_Config+0x44>
     842:	07fb      	br      	0x838	// 838 <EPT_AQCR_Eventload_Config+0x18>
	else if(EPT_AQCRX_EventLoad_X==EPT_AQCRX_EventLoad_PRD)
     844:	3843      	cmpnei      	r0, 3
     846:	0803      	bt      	0x84c	// 84c <EPT_AQCR_Eventload_Config+0x2c>
		EPT0->AQLDR=0x4848;
     848:	1142      	lrw      	r2, 0x4848	// 8d0 <EPT_TRGSRCX_Config+0x48>
     84a:	07f7      	br      	0x838	// 838 <EPT_AQCR_Eventload_Config+0x18>
	else if(EPT_AQCRX_EventLoad_X==EPT_AQCRX_EventLoad_ExiLoad_SYNC)
     84c:	3844      	cmpnei      	r0, 4
     84e:	0bf1      	bt      	0x830	// 830 <EPT_AQCR_Eventload_Config+0x10>
		EPT0->AQLDR=0x9090;
     850:	1141      	lrw      	r2, 0x9090	// 8d4 <EPT_TRGSRCX_Config+0x4c>
     852:	07f3      	br      	0x838	// 838 <EPT_AQCR_Eventload_Config+0x18>

00000854 <EPT_DB_Eventload_Config>:
//EPT_DB_EventLoad_PRD,EPT_DB_EventLoad_ZRO_PRD
/*************************************************************/ 
//Unified load register:DBCR,DBDTR,DBDTF,DPSCR
void EPT_DB_Eventload_Config(EPT_DB_EventLoad_Type EPT_DB_EventLoad_X)
{
	EPT0->GLDCR&=0XFFFFFFFE;		//Use independent configurations
     854:	1077      	lrw      	r3, 0x20000034	// 8b0 <EPT_TRGSRCX_Config+0x28>
	if(EPT_DB_EventLoad_X==EPT_DB_EventLoad_DIS)
     856:	3840      	cmpnei      	r0, 0
	EPT0->GLDCR&=0XFFFFFFFE;		//Use independent configurations
     858:	9360      	ld.w      	r3, (r3, 0x0)
     85a:	9345      	ld.w      	r2, (r3, 0x14)
     85c:	3a80      	bclri      	r2, 0
     85e:	b345      	st.w      	r2, (r3, 0x14)
	if(EPT_DB_EventLoad_X==EPT_DB_EventLoad_DIS)
     860:	0804      	bt      	0x868	// 868 <EPT_DB_Eventload_Config+0x14>
	{
		EPT0->DBLDR=0X249;
     862:	105e      	lrw      	r2, 0x249	// 8d8 <EPT_TRGSRCX_Config+0x50>
	{
		EPT0->DBLDR=0X249|(0X02<<1)|(0X02<<4)|(0X02<<7)|(0X02<<10);
	}
	else if(EPT_DB_EventLoad_X==EPT_DB_EventLoad_ZRO_PRD)
	{
		EPT0->DBLDR=0X249|(0X03<<1)|(0X03<<4)|(0X03<<7)|(0X03<<10);
     864:	b359      	st.w      	r2, (r3, 0x64)
	}
}
     866:	783c      	jmp      	r15
	else if(EPT_DB_EventLoad_X==EPT_DB_EventLoad_Immediate)
     868:	3841      	cmpnei      	r0, 1
     86a:	0803      	bt      	0x870	// 870 <EPT_DB_Eventload_Config+0x1c>
		EPT0->DBLDR=0;
     86c:	3200      	movi      	r2, 0
     86e:	07fb      	br      	0x864	// 864 <EPT_DB_Eventload_Config+0x10>
	else if(EPT_DB_EventLoad_X==EPT_DB_EventLoad_ZRO)
     870:	3842      	cmpnei      	r0, 2
     872:	0803      	bt      	0x878	// 878 <EPT_DB_Eventload_Config+0x24>
		EPT0->DBLDR=0X249|(0X01<<1)|(0X01<<4)|(0X01<<7)|(0X01<<10);
     874:	105a      	lrw      	r2, 0x6db	// 8dc <EPT_TRGSRCX_Config+0x54>
     876:	07f7      	br      	0x864	// 864 <EPT_DB_Eventload_Config+0x10>
	else if(EPT_DB_EventLoad_X==EPT_DB_EventLoad_PRD)
     878:	3843      	cmpnei      	r0, 3
     87a:	0803      	bt      	0x880	// 880 <EPT_DB_Eventload_Config+0x2c>
		EPT0->DBLDR=0X249|(0X02<<1)|(0X02<<4)|(0X02<<7)|(0X02<<10);
     87c:	1059      	lrw      	r2, 0xb6d	// 8e0 <EPT_TRGSRCX_Config+0x58>
     87e:	07f3      	br      	0x864	// 864 <EPT_DB_Eventload_Config+0x10>
	else if(EPT_DB_EventLoad_X==EPT_DB_EventLoad_ZRO_PRD)
     880:	3844      	cmpnei      	r0, 4
     882:	0bf2      	bt      	0x866	// 866 <EPT_DB_Eventload_Config+0x12>
		EPT0->DBLDR=0X249|(0X03<<1)|(0X03<<4)|(0X03<<7)|(0X03<<10);
     884:	1058      	lrw      	r2, 0xfff	// 8e4 <EPT_TRGSRCX_Config+0x5c>
     886:	07ef      	br      	0x864	// 864 <EPT_DB_Eventload_Config+0x10>

00000888 <EPT_TRGSRCX_Config>:
//EPT_TRGSRCX_CMD:
//TRGEVXPRD:0~0xf
//ReturnValue: NONE
/*************************************************************/
void EPT_TRGSRCX_Config(EPT_TRGSRCX_Select_Type EPT_TRGSRCX_Select , EPT_EVTRG_TRGSRCX_TypeDef EPT_EVTRG_TRGSRCX_X , EPT_TRGSRCX_CMD_TypeDef EPT_TRGSRCX_CMD , U8_T TRGEVXPRD)
{
     888:	14c2      	push      	r4-r5
	if(EPT_TRGSRCX_Select==EPT_TRGSRC0)
     88a:	3840      	cmpnei      	r0, 0
     88c:	1089      	lrw      	r4, 0x20000034	// 8b0 <EPT_TRGSRCX_Config+0x28>
     88e:	0831      	bt      	0x8f0	// 8f0 <EPT_TRGSRCX_Config+0x68>
	{
		EPT0->EVTRG=(EPT0->EVTRG&0xffeffff0)|(EPT_EVTRG_TRGSRCX_X<<0)|(EPT_TRGSRCX_CMD<<20);
     890:	9460      	ld.w      	r3, (r4, 0x0)
     892:	237f      	addi      	r3, 128
     894:	4254      	lsli      	r2, r2, 20
     896:	9310      	ld.w      	r0, (r3, 0x40)
     898:	6c48      	or      	r1, r2
     89a:	1054      	lrw      	r2, 0x10000f	// 8e8 <EPT_TRGSRCX_Config+0x60>
     89c:	6809      	andn      	r0, r2
     89e:	6c40      	or      	r1, r0
     8a0:	b330      	st.w      	r1, (r3, 0x40)
	}
	else if(EPT_TRGSRCX_Select==EPT_TRGSRC3)
	{
		EPT0->EVTRG=(EPT0->EVTRG&0xff7f0fff)|(EPT_EVTRG_TRGSRCX_X<<12)|(EPT_TRGSRCX_CMD<<23);
	}
	EPT0->EVTRG|=0x0f0f0000;
     8a2:	9460      	ld.w      	r3, (r4, 0x0)
     8a4:	237f      	addi      	r3, 128
     8a6:	9350      	ld.w      	r2, (r3, 0x40)
     8a8:	1031      	lrw      	r1, 0xf0f0000	// 8ec <EPT_TRGSRCX_Config+0x64>
     8aa:	6c84      	or      	r2, r1
     8ac:	b350      	st.w      	r2, (r3, 0x40)
}
     8ae:	1482      	pop      	r4-r5
     8b0:	20000034 	.long	0x20000034
     8b4:	a55ac73a 	.long	0xa55ac73a
     8b8:	3fc10000 	.long	0x3fc10000
     8bc:	00002410 	.long	0x00002410
     8c0:	00004920 	.long	0x00004920
     8c4:	00008240 	.long	0x00008240
     8c8:	00000303 	.long	0x00000303
     8cc:	00002424 	.long	0x00002424
     8d0:	00004848 	.long	0x00004848
     8d4:	00009090 	.long	0x00009090
     8d8:	00000249 	.long	0x00000249
     8dc:	000006db 	.long	0x000006db
     8e0:	00000b6d 	.long	0x00000b6d
     8e4:	00000fff 	.long	0x00000fff
     8e8:	0010000f 	.long	0x0010000f
     8ec:	0f0f0000 	.long	0x0f0f0000
	else if(EPT_TRGSRCX_Select==EPT_TRGSRC1)
     8f0:	3841      	cmpnei      	r0, 1
     8f2:	080c      	bt      	0x90a	// 90a <EPT_TRGSRCX_Config+0x82>
		EPT0->EVTRG=(EPT0->EVTRG&0xffdfff0f)|(EPT_EVTRG_TRGSRCX_X<<4)|(EPT_TRGSRCX_CMD<<21);
     8f4:	9400      	ld.w      	r0, (r4, 0x0)
     8f6:	207f      	addi      	r0, 128
     8f8:	9070      	ld.w      	r3, (r0, 0x40)
     8fa:	03ae      	lrw      	r5, 0x2000f0	// b3c <EPT_SW_Set_lock+0x14>
     8fc:	68d5      	andn      	r3, r5
     8fe:	4255      	lsli      	r2, r2, 21
     900:	6c8c      	or      	r2, r3
     902:	4124      	lsli      	r1, r1, 4
		EPT0->EVTRG=(EPT0->EVTRG&0xff7f0fff)|(EPT_EVTRG_TRGSRCX_X<<12)|(EPT_TRGSRCX_CMD<<23);
     904:	6c48      	or      	r1, r2
     906:	b030      	st.w      	r1, (r0, 0x40)
     908:	07cd      	br      	0x8a2	// 8a2 <EPT_TRGSRCX_Config+0x1a>
	else if(EPT_TRGSRCX_Select==EPT_TRGSRC2)
     90a:	3842      	cmpnei      	r0, 2
     90c:	080a      	bt      	0x920	// 920 <EPT_TRGSRCX_Config+0x98>
		EPT0->EVTRG=(EPT0->EVTRG&0xffbff0ff)|(EPT_EVTRG_TRGSRCX_X<<8)|(EPT_TRGSRCX_CMD<<22);
     90e:	9400      	ld.w      	r0, (r4, 0x0)
     910:	207f      	addi      	r0, 128
     912:	9070      	ld.w      	r3, (r0, 0x40)
     914:	03b4      	lrw      	r5, 0x400f00	// b40 <EPT_SW_Set_lock+0x18>
     916:	68d5      	andn      	r3, r5
     918:	4256      	lsli      	r2, r2, 22
     91a:	6c8c      	or      	r2, r3
     91c:	4128      	lsli      	r1, r1, 8
     91e:	07f3      	br      	0x904	// 904 <EPT_TRGSRCX_Config+0x7c>
	else if(EPT_TRGSRCX_Select==EPT_TRGSRC3)
     920:	3843      	cmpnei      	r0, 3
     922:	0bc0      	bt      	0x8a2	// 8a2 <EPT_TRGSRCX_Config+0x1a>
		EPT0->EVTRG=(EPT0->EVTRG&0xff7f0fff)|(EPT_EVTRG_TRGSRCX_X<<12)|(EPT_TRGSRCX_CMD<<23);
     924:	9400      	ld.w      	r0, (r4, 0x0)
     926:	207f      	addi      	r0, 128
     928:	9070      	ld.w      	r3, (r0, 0x40)
     92a:	03b8      	lrw      	r5, 0x80f000	// b44 <EPT_SW_Set_lock+0x1c>
     92c:	68d5      	andn      	r3, r5
     92e:	4257      	lsli      	r2, r2, 23
     930:	6c8c      	or      	r2, r3
     932:	412c      	lsli      	r1, r1, 12
     934:	07e8      	br      	0x904	// 904 <EPT_TRGSRCX_Config+0x7c>

00000936 <EPT_TRGSRCX_SWFTRG>:
//EPT_TRGSRCX_Select:EPT_TRGSRC0,EPT_TRGSRC1,EPT_TRGSRC2,EPT_TRGSRC3
//ReturnValue: NONE
/*************************************************************/
void EPT_TRGSRCX_SWFTRG(EPT_TRGSRCX_Select_Type EPT_TRGSRCX_Select)
{
	if(EPT_TRGSRCX_Select==EPT_TRGSRC0)
     936:	3840      	cmpnei      	r0, 0
     938:	0808      	bt      	0x948	// 948 <EPT_TRGSRCX_SWFTRG+0x12>
	{
		EPT0->EVSWF|=0X01;
     93a:	037b      	lrw      	r3, 0x20000034	// b48 <EPT_SW_Set_lock+0x20>
     93c:	9360      	ld.w      	r3, (r3, 0x0)
     93e:	237f      	addi      	r3, 128
     940:	9353      	ld.w      	r2, (r3, 0x4c)
     942:	3aa0      	bseti      	r2, 0
	{
		EPT0->EVSWF|=0X04;
	}
	else if(EPT_TRGSRCX_Select==EPT_TRGSRC3)
	{
		EPT0->EVSWF|=0X08;
     944:	b353      	st.w      	r2, (r3, 0x4c)
	}
}
     946:	783c      	jmp      	r15
	else if(EPT_TRGSRCX_Select==EPT_TRGSRC1)
     948:	3841      	cmpnei      	r0, 1
     94a:	0807      	bt      	0x958	// 958 <EPT_TRGSRCX_SWFTRG+0x22>
		EPT0->EVSWF|=0X02;
     94c:	137f      	lrw      	r3, 0x20000034	// b48 <EPT_SW_Set_lock+0x20>
     94e:	9360      	ld.w      	r3, (r3, 0x0)
     950:	237f      	addi      	r3, 128
     952:	9353      	ld.w      	r2, (r3, 0x4c)
     954:	3aa1      	bseti      	r2, 1
     956:	07f7      	br      	0x944	// 944 <EPT_TRGSRCX_SWFTRG+0xe>
	else if(EPT_TRGSRCX_Select==EPT_TRGSRC2)
     958:	3842      	cmpnei      	r0, 2
     95a:	0807      	bt      	0x968	// 968 <EPT_TRGSRCX_SWFTRG+0x32>
		EPT0->EVSWF|=0X04;
     95c:	137b      	lrw      	r3, 0x20000034	// b48 <EPT_SW_Set_lock+0x20>
     95e:	9360      	ld.w      	r3, (r3, 0x0)
     960:	237f      	addi      	r3, 128
     962:	9353      	ld.w      	r2, (r3, 0x4c)
     964:	3aa2      	bseti      	r2, 2
     966:	07ef      	br      	0x944	// 944 <EPT_TRGSRCX_SWFTRG+0xe>
	else if(EPT_TRGSRCX_Select==EPT_TRGSRC3)
     968:	3843      	cmpnei      	r0, 3
     96a:	0bee      	bt      	0x946	// 946 <EPT_TRGSRCX_SWFTRG+0x10>
		EPT0->EVSWF|=0X08;
     96c:	1377      	lrw      	r3, 0x20000034	// b48 <EPT_SW_Set_lock+0x20>
     96e:	9360      	ld.w      	r3, (r3, 0x0)
     970:	237f      	addi      	r3, 128
     972:	9353      	ld.w      	r2, (r3, 0x4c)
     974:	3aa3      	bseti      	r2, 3
     976:	07e7      	br      	0x944	// 944 <EPT_TRGSRCX_SWFTRG+0xe>

00000978 <EPT_Int_Enable>:
//EntryParameter:NONE
//ReturnValue: NONE
/*************************************************************/
void EPT_Int_Enable(EPT_INT_TypeDef EPT_X_INT)
{
	EPT0->ICR 	= EPT_X_INT;							//clear LVD INT status
     978:	1374      	lrw      	r3, 0x20000034	// b48 <EPT_SW_Set_lock+0x20>
     97a:	9360      	ld.w      	r3, (r3, 0x0)
     97c:	237f      	addi      	r3, 128
     97e:	b317      	st.w      	r0, (r3, 0x5c)
	EPT0->IMCR  |= EPT_X_INT;
     980:	9356      	ld.w      	r2, (r3, 0x58)
     982:	6c08      	or      	r0, r2
     984:	b316      	st.w      	r0, (r3, 0x58)
}
     986:	783c      	jmp      	r15

00000988 <EPT_Int_Disable>:
//EntryParameter:NONE
//ReturnValue: NONE
/*************************************************************/
void EPT_Int_Disable(EPT_INT_TypeDef EPT_X_INT)
{
	EPT0->IMCR  &= ~EPT_X_INT;
     988:	1370      	lrw      	r3, 0x20000034	// b48 <EPT_SW_Set_lock+0x20>
     98a:	9360      	ld.w      	r3, (r3, 0x0)
     98c:	237f      	addi      	r3, 128
     98e:	9356      	ld.w      	r2, (r3, 0x58)
     990:	6881      	andn      	r2, r0
     992:	b356      	st.w      	r2, (r3, 0x58)
}
     994:	783c      	jmp      	r15

00000996 <EPT_EMInt_Enable>:
//EPT_X_EMINT:EPT_EP0_EMINT~EPT_EP7_EMINT,EPT_CPU_FAULT_EMINT,EPT_MEM_FAULT_EMINT,EPT_EOM_FAULT_EMINT
//ReturnValue: NONE
/*************************************************************/
void EPT_EMInt_Enable(EPT_EMINT_TypeDef EPT_X_EMINT)
{
	EPT0->EMICR = EPT_X_EMINT;							//clear LVD INT status
     996:	136d      	lrw      	r3, 0x20000034	// b48 <EPT_SW_Set_lock+0x20>
     998:	9360      	ld.w      	r3, (r3, 0x0)
     99a:	237f      	addi      	r3, 128
     99c:	b30d      	st.w      	r0, (r3, 0x34)
	EPT0->EMIMCR  |= EPT_X_EMINT;
     99e:	934c      	ld.w      	r2, (r3, 0x30)
     9a0:	6c08      	or      	r0, r2
     9a2:	b30c      	st.w      	r0, (r3, 0x30)
}
     9a4:	783c      	jmp      	r15

000009a6 <EPT_EMInt_Disable>:
//EPT_X_EMINT:EPT_EP0_EMINT~EPT_EP7_EMINT,EPT_CPU_FAULT_EMINT,EPT_MEM_FAULT_EMINT,EPT_EOM_FAULT_EMINT
//ReturnValue: NONE
/*************************************************************/
void EPT_EMInt_Disable(EPT_EMINT_TypeDef EPT_X_EMINT)
{
	EPT0->EMIMCR  &= ~EPT_X_EMINT;
     9a6:	1369      	lrw      	r3, 0x20000034	// b48 <EPT_SW_Set_lock+0x20>
     9a8:	9360      	ld.w      	r3, (r3, 0x0)
     9aa:	237f      	addi      	r3, 128
     9ac:	934c      	ld.w      	r2, (r3, 0x30)
     9ae:	6881      	andn      	r2, r0
     9b0:	b34c      	st.w      	r2, (r3, 0x30)
}
     9b2:	783c      	jmp      	r15

000009b4 <EPT_Vector_Int_Enable>:
//EntryParameter:NONE
//ReturnValue:NONE
/*************************************************************/
void EPT_Vector_Int_Enable(void)
{
	INTC_ISER_WRITE(EPT_INT);    
     9b4:	1366      	lrw      	r3, 0x20000078	// b4c <EPT_SW_Set_lock+0x24>
     9b6:	3280      	movi      	r2, 128
     9b8:	9360      	ld.w      	r3, (r3, 0x0)
     9ba:	23ff      	addi      	r3, 256
     9bc:	4247      	lsli      	r2, r2, 7
     9be:	b340      	st.w      	r2, (r3, 0x0)
}
     9c0:	783c      	jmp      	r15

000009c2 <EPT_Vector_Int_Disable>:
//EntryParameter:NONE
//ReturnValue:NONE
/*************************************************************/
void EPT_Vector_Int_Disable(void)
{
    INTC_ICER_WRITE(EPT_INT);    
     9c2:	1363      	lrw      	r3, 0x20000078	// b4c <EPT_SW_Set_lock+0x24>
     9c4:	32c0      	movi      	r2, 192
     9c6:	9360      	ld.w      	r3, (r3, 0x0)
     9c8:	4241      	lsli      	r2, r2, 1
     9ca:	60c8      	addu      	r3, r2
     9cc:	3280      	movi      	r2, 128
     9ce:	4247      	lsli      	r2, r2, 7
     9d0:	b340      	st.w      	r2, (r3, 0x0)
}
     9d2:	783c      	jmp      	r15

000009d4 <EPT_EPX_Config>:
//EPT_FLT_PACE0_x:EPT_FLT_PACE0_DIS~EPT_FLT_PACE0_4CLK(EP0~EP3)
//EPT_FLT_PACE1_x:EPT_FLT_PACE1_DIS~EPT_FLT_PACE1_4CLK(EP4~EP7)
//ReturnValue:NONE
/*************************************************************/   
void EPT_EPX_Config(EPT_EPX_Type EPT_EPX , EPT_Input_selecte_Type EPT_Input_selecte_x , EPT_FLT_PACE0_Type EPT_FLT_PACE0_x , EPT_FLT_PACE1_Type EPT_FLT_PACE1_x , U8_T ORL0_EPIx , U8_T ORL1_EPIx)
{
     9d4:	14c4      	push      	r4-r7
     9d6:	1421      	subi      	r14, r14, 4
     9d8:	d88e0014 	ld.b      	r4, (r14, 0x14)
     9dc:	b880      	st.w      	r4, (r14, 0x0)
	EPT0->REGPROT = (0xA55A<<16) | 0xC73A;
     9de:	3680      	movi      	r6, 128
     9e0:	129a      	lrw      	r4, 0x20000034	// b48 <EPT_SW_Set_lock+0x20>
     9e2:	12fc      	lrw      	r7, 0xa55ac73a	// b50 <EPT_SW_Set_lock+0x28>
     9e4:	9480      	ld.w      	r4, (r4, 0x0)
     9e6:	6190      	addu      	r6, r4
	if(EPT_EPX==EPT_EP0)
     9e8:	3840      	cmpnei      	r0, 0
{
     9ea:	d8ae0018 	ld.b      	r5, (r14, 0x18)
	EPT0->REGPROT = (0xA55A<<16) | 0xC73A;
     9ee:	b6fa      	st.w      	r7, (r6, 0x68)
	if(EPT_EPX==EPT_EP0)
     9f0:	0810      	bt      	0xa10	// a10 <EPT_EPX_Config+0x3c>
	{
		EPT0->EMSRC=(EPT0->EMSRC&0XFFFFFFF0)|(EPT_Input_selecte_x<<0);
     9f2:	941f      	ld.w      	r0, (r4, 0x7c)
     9f4:	370f      	movi      	r7, 15
     9f6:	681d      	andn      	r0, r7
	{
		EPT0->EMSRC=(EPT0->EMSRC&0XF0FFFFFF)|(EPT_Input_selecte_x<<24);
	}
	else if(EPT_EPX==EPT_EP7)
	{
		EPT0->EMSRC=(EPT0->EMSRC&0X0FFFFFFF)|(EPT_Input_selecte_x<<28);
     9f8:	6c40      	or      	r1, r0
     9fa:	b43f      	st.w      	r1, (r4, 0x7c)
	}
	EPT0->REGPROT = (0xA55A<<16) | 0xC73A;
     9fc:	1235      	lrw      	r1, 0xa55ac73a	// b50 <EPT_SW_Set_lock+0x28>
     9fe:	b63a      	st.w      	r1, (r6, 0x68)
	EPT0->EMSRC2=ORL0_EPIx|(ORL1_EPIx<<16)|EPT_FLT_PACE0_x|EPT_FLT_PACE1_x;
     a00:	45b0      	lsli      	r5, r5, 16
     a02:	9820      	ld.w      	r1, (r14, 0x0)
     a04:	6d44      	or      	r5, r1
     a06:	6c8c      	or      	r2, r3
     a08:	6c94      	or      	r2, r5
     a0a:	b640      	st.w      	r2, (r6, 0x0)
}
     a0c:	1401      	addi      	r14, r14, 4
     a0e:	1484      	pop      	r4-r7
	else if(EPT_EPX==EPT_EP1)
     a10:	3841      	cmpnei      	r0, 1
     a12:	0806      	bt      	0xa1e	// a1e <EPT_EPX_Config+0x4a>
		EPT0->EMSRC=(EPT0->EMSRC&0XFFFFFF0F)|(EPT_Input_selecte_x<<4);
     a14:	941f      	ld.w      	r0, (r4, 0x7c)
     a16:	37f0      	movi      	r7, 240
     a18:	681d      	andn      	r0, r7
     a1a:	4124      	lsli      	r1, r1, 4
     a1c:	07ee      	br      	0x9f8	// 9f8 <EPT_EPX_Config+0x24>
	else if(EPT_EPX==EPT_EP2)
     a1e:	3842      	cmpnei      	r0, 2
     a20:	0807      	bt      	0xa2e	// a2e <EPT_EPX_Config+0x5a>
		EPT0->EMSRC=(EPT0->EMSRC&0XFFFFF0FF)|(EPT_Input_selecte_x<<8);
     a22:	37f0      	movi      	r7, 240
     a24:	941f      	ld.w      	r0, (r4, 0x7c)
     a26:	47e4      	lsli      	r7, r7, 4
     a28:	681d      	andn      	r0, r7
     a2a:	4128      	lsli      	r1, r1, 8
     a2c:	07e6      	br      	0x9f8	// 9f8 <EPT_EPX_Config+0x24>
	else if(EPT_EPX==EPT_EP3)
     a2e:	3843      	cmpnei      	r0, 3
     a30:	0807      	bt      	0xa3e	// a3e <EPT_EPX_Config+0x6a>
		EPT0->EMSRC=(EPT0->EMSRC&0XFFFF0FFF)|(EPT_Input_selecte_x<<12);
     a32:	37f0      	movi      	r7, 240
     a34:	941f      	ld.w      	r0, (r4, 0x7c)
     a36:	47e8      	lsli      	r7, r7, 8
     a38:	681d      	andn      	r0, r7
     a3a:	412c      	lsli      	r1, r1, 12
     a3c:	07de      	br      	0x9f8	// 9f8 <EPT_EPX_Config+0x24>
	else if(EPT_EPX==EPT_EP4)
     a3e:	3844      	cmpnei      	r0, 4
     a40:	0807      	bt      	0xa4e	// a4e <EPT_EPX_Config+0x7a>
		EPT0->EMSRC=(EPT0->EMSRC&0XFFF0FFFF)|(EPT_Input_selecte_x<<16);
     a42:	37f0      	movi      	r7, 240
     a44:	941f      	ld.w      	r0, (r4, 0x7c)
     a46:	47ec      	lsli      	r7, r7, 12
     a48:	681d      	andn      	r0, r7
     a4a:	4130      	lsli      	r1, r1, 16
     a4c:	07d6      	br      	0x9f8	// 9f8 <EPT_EPX_Config+0x24>
	else if(EPT_EPX==EPT_EP5)
     a4e:	3845      	cmpnei      	r0, 5
     a50:	0807      	bt      	0xa5e	// a5e <EPT_EPX_Config+0x8a>
		EPT0->EMSRC=(EPT0->EMSRC&0XFF0FFFFF)|(EPT_Input_selecte_x<<20);
     a52:	37f0      	movi      	r7, 240
     a54:	941f      	ld.w      	r0, (r4, 0x7c)
     a56:	47f0      	lsli      	r7, r7, 16
     a58:	681d      	andn      	r0, r7
     a5a:	4134      	lsli      	r1, r1, 20
     a5c:	07ce      	br      	0x9f8	// 9f8 <EPT_EPX_Config+0x24>
	else if(EPT_EPX==EPT_EP6)
     a5e:	3846      	cmpnei      	r0, 6
     a60:	0807      	bt      	0xa6e	// a6e <EPT_EPX_Config+0x9a>
		EPT0->EMSRC=(EPT0->EMSRC&0XF0FFFFFF)|(EPT_Input_selecte_x<<24);
     a62:	37f0      	movi      	r7, 240
     a64:	941f      	ld.w      	r0, (r4, 0x7c)
     a66:	47f4      	lsli      	r7, r7, 20
     a68:	681d      	andn      	r0, r7
     a6a:	4138      	lsli      	r1, r1, 24
     a6c:	07c6      	br      	0x9f8	// 9f8 <EPT_EPX_Config+0x24>
	else if(EPT_EPX==EPT_EP7)
     a6e:	3847      	cmpnei      	r0, 7
     a70:	0bc6      	bt      	0x9fc	// 9fc <EPT_EPX_Config+0x28>
		EPT0->EMSRC=(EPT0->EMSRC&0X0FFFFFFF)|(EPT_Input_selecte_x<<28);
     a72:	941f      	ld.w      	r0, (r4, 0x7c)
     a74:	4004      	lsli      	r0, r0, 4
     a76:	4804      	lsri      	r0, r0, 4
     a78:	413c      	lsli      	r1, r1, 28
     a7a:	07bf      	br      	0x9f8	// 9f8 <EPT_EPX_Config+0x24>

00000a7c <EPT_EPIX_POL_Config>:
//BIT5->CMP1(0:Active high 1:Active low)
//ReturnValue:NONE
/*************************************************************/   
void EPT_EPIX_POL_Config(U8_T EPT_EPIX_POL)
{
	EPT0->REGPROT = (0xA55A<<16) | 0xC73A;
     a7c:	1173      	lrw      	r3, 0x20000034	// b48 <EPT_SW_Set_lock+0x20>
     a7e:	1155      	lrw      	r2, 0xa55ac73a	// b50 <EPT_SW_Set_lock+0x28>
     a80:	9360      	ld.w      	r3, (r3, 0x0)
     a82:	237f      	addi      	r3, 128
     a84:	b35a      	st.w      	r2, (r3, 0x68)
	EPT0->EMPOL=EPT_EPIX_POL;
     a86:	b301      	st.w      	r0, (r3, 0x4)
}
     a88:	783c      	jmp      	r15

00000a8a <EPT_LKCR_TRG_Config>:
//EPT_LKCR_TRG_X:EPT_LKCR_TRG_EP0~EPT_LKCR_TRG_EP7,EPT_LKCR_TRG_CPU_FAULT,EPT_LKCR_TRG_MEM_FAULT,EPT_LKCR_TRG_EOM_FAULT
//EPT_LKCR_Mode_X:EPT_LKCR_Mode_LOCK_DIS,EPT_LKCR_Mode_SLOCK_EN,EPT_LKCR_Mode_HLOCK_EN,EPT_LKCR_TRG_X_FAULT_HLOCK_EN,EPT_LKCR_TRG_X_FAULT_HLOCK_DIS
//ReturnValue:NONE
/*************************************************************/
void EPT_LKCR_TRG_Config(EPT_LKCR_TRG_Source_Type EPT_LKCR_TRG_X , EPT_LKCR_Mode_Type EPT_LKCR_Mode_X)
{
     a8a:	14c2      	push      	r4-r5
	EPT0->REGPROT = (0xA55A<<16) | 0xC73A;
     a8c:	116f      	lrw      	r3, 0x20000034	// b48 <EPT_SW_Set_lock+0x20>
     a8e:	11b1      	lrw      	r5, 0xa55ac73a	// b50 <EPT_SW_Set_lock+0x28>
     a90:	9360      	ld.w      	r3, (r3, 0x0)
     a92:	237f      	addi      	r3, 128
     a94:	b3ba      	st.w      	r5, (r3, 0x68)
	EPT0->EMECR|=(0X01<<21)|(0X01<<22)|(0X02<<24);			//EMOSR CNT=ZRO loadAutomatically clear soft lock when CNT=ZRO&PRD
     a96:	3498      	movi      	r4, 152
     a98:	9342      	ld.w      	r2, (r3, 0x8)
     a9a:	4492      	lsli      	r4, r4, 18
     a9c:	6c90      	or      	r2, r4
	EPT0->REGPROT = (0xA55A<<16) | 0xC73A;
	if(EPT_LKCR_TRG_X==EPT_LKCR_TRG_CPU_FAULT)
     a9e:	384f      	cmpnei      	r0, 15
	EPT0->EMECR|=(0X01<<21)|(0X01<<22)|(0X02<<24);			//EMOSR CNT=ZRO loadAutomatically clear soft lock when CNT=ZRO&PRD
     aa0:	b342      	st.w      	r2, (r3, 0x8)
	EPT0->REGPROT = (0xA55A<<16) | 0xC73A;
     aa2:	b3ba      	st.w      	r5, (r3, 0x68)
	if(EPT_LKCR_TRG_X==EPT_LKCR_TRG_CPU_FAULT)
     aa4:	080c      	bt      	0xabc	// abc <EPT_LKCR_TRG_Config+0x32>
	{
		if(EPT_LKCR_Mode_X==EPT_LKCR_TRG_X_FAULT_HLOCK_EN)
     aa6:	3943      	cmpnei      	r1, 3
     aa8:	0805      	bt      	0xab2	// ab2 <EPT_LKCR_TRG_Config+0x28>
		{
			EPT0->EMECR|=(0x01<<28);
     aaa:	9342      	ld.w      	r2, (r3, 0x8)
     aac:	3abc      	bseti      	r2, 28
		{
			EPT0->EMECR|=(0x01<<30);
		}
		else if(EPT_LKCR_Mode_X==EPT_LKCR_TRG_X_FAULT_HLOCK_DIS)
		{
			EPT0->EMECR&=~(0x01<<30);
     aae:	b342      	st.w      	r2, (r3, 0x8)
	}
	else
	{
		EPT0->EMECR|=(EPT_LKCR_Mode_X<<(EPT_LKCR_TRG_X))|(0X01<<26);
	}
}
     ab0:	1482      	pop      	r4-r5
		else if(EPT_LKCR_Mode_X==EPT_LKCR_TRG_X_FAULT_HLOCK_DIS)
     ab2:	3944      	cmpnei      	r1, 4
     ab4:	0bfe      	bt      	0xab0	// ab0 <EPT_LKCR_TRG_Config+0x26>
			EPT0->EMECR&=~(0x01<<28);
     ab6:	9342      	ld.w      	r2, (r3, 0x8)
     ab8:	3a9c      	bclri      	r2, 28
     aba:	07fa      	br      	0xaae	// aae <EPT_LKCR_TRG_Config+0x24>
	else if(EPT_LKCR_TRG_X==EPT_LKCR_TRG_MEM_FAULT)
     abc:	3850      	cmpnei      	r0, 16
     abe:	080b      	bt      	0xad4	// ad4 <EPT_LKCR_TRG_Config+0x4a>
		if(EPT_LKCR_Mode_X==EPT_LKCR_TRG_X_FAULT_HLOCK_EN)
     ac0:	3943      	cmpnei      	r1, 3
     ac2:	0804      	bt      	0xaca	// aca <EPT_LKCR_TRG_Config+0x40>
			EPT0->EMECR|=(0x01<<29);
     ac4:	9342      	ld.w      	r2, (r3, 0x8)
     ac6:	3abd      	bseti      	r2, 29
     ac8:	07f3      	br      	0xaae	// aae <EPT_LKCR_TRG_Config+0x24>
		else if(EPT_LKCR_Mode_X==EPT_LKCR_TRG_X_FAULT_HLOCK_DIS)
     aca:	3944      	cmpnei      	r1, 4
     acc:	0bf2      	bt      	0xab0	// ab0 <EPT_LKCR_TRG_Config+0x26>
			EPT0->EMECR&=~(0x01<<29);
     ace:	9342      	ld.w      	r2, (r3, 0x8)
     ad0:	3a9d      	bclri      	r2, 29
     ad2:	07ee      	br      	0xaae	// aae <EPT_LKCR_TRG_Config+0x24>
	else if(EPT_LKCR_TRG_X==EPT_LKCR_TRG_EOM_FAULT)
     ad4:	3851      	cmpnei      	r0, 17
     ad6:	080b      	bt      	0xaec	// aec <EPT_LKCR_TRG_Config+0x62>
		if(EPT_LKCR_Mode_X==EPT_LKCR_TRG_X_FAULT_HLOCK_EN)
     ad8:	3943      	cmpnei      	r1, 3
     ada:	0804      	bt      	0xae2	// ae2 <EPT_LKCR_TRG_Config+0x58>
			EPT0->EMECR|=(0x01<<30);
     adc:	9342      	ld.w      	r2, (r3, 0x8)
     ade:	3abe      	bseti      	r2, 30
     ae0:	07e7      	br      	0xaae	// aae <EPT_LKCR_TRG_Config+0x24>
		else if(EPT_LKCR_Mode_X==EPT_LKCR_TRG_X_FAULT_HLOCK_DIS)
     ae2:	3944      	cmpnei      	r1, 4
     ae4:	0be6      	bt      	0xab0	// ab0 <EPT_LKCR_TRG_Config+0x26>
			EPT0->EMECR&=~(0x01<<30);
     ae6:	9342      	ld.w      	r2, (r3, 0x8)
     ae8:	3a9e      	bclri      	r2, 30
     aea:	07e2      	br      	0xaae	// aae <EPT_LKCR_TRG_Config+0x24>
		EPT0->EMECR|=(EPT_LKCR_Mode_X<<(EPT_LKCR_TRG_X))|(0X01<<26);
     aec:	9342      	ld.w      	r2, (r3, 0x8)
     aee:	7040      	lsl      	r1, r0
     af0:	3aba      	bseti      	r2, 26
     af2:	6c48      	or      	r1, r2
     af4:	b322      	st.w      	r1, (r3, 0x8)
}
     af6:	07dd      	br      	0xab0	// ab0 <EPT_LKCR_TRG_Config+0x26>

00000af8 <EPT_SHLOCK_OUTPUT_Config>:
//EPT_SHLOCK_OUTPUT_X:EPT_SHLOCK_OUTPUT_HImpedance,EPT_SHLOCK_OUTPUT_High,EPT_SHLOCK_OUTPUT_Low,EPT_SHLOCK_OUTPUT_Nochange
//ReturnValue:NONE
/*************************************************************/
void EPT_SHLOCK_OUTPUT_Config(EPT_OUTPUT_Channel_Type EPT_OUTPUT_Channel_X , EPT_SHLOCK_OUTPUT_Statue_Type EPT_SHLOCK_OUTPUT_X)
{
	EPT0->REGPROT = (0xA55A<<16) | 0xC73A;
     af8:	1074      	lrw      	r3, 0x20000034	// b48 <EPT_SW_Set_lock+0x20>
     afa:	1056      	lrw      	r2, 0xa55ac73a	// b50 <EPT_SW_Set_lock+0x28>
     afc:	9360      	ld.w      	r3, (r3, 0x0)
     afe:	237f      	addi      	r3, 128
     b00:	b35a      	st.w      	r2, (r3, 0x68)
	EPT0->EMOSR|=EPT_SHLOCK_OUTPUT_X<<EPT_OUTPUT_Channel_X;
     b02:	9343      	ld.w      	r2, (r3, 0xc)
     b04:	7040      	lsl      	r1, r0
     b06:	6c48      	or      	r1, r2
     b08:	b323      	st.w      	r1, (r3, 0xc)
}
     b0a:	783c      	jmp      	r15

00000b0c <EPT_SLock_CLR>:
//EPT_X_EMINT:EPT_EP0_EMINT~EPT_EP7_EMINT,EPT_CPU_FAULT_EMINT,EPT_MEM_FAULT_EMINT,EPT_EOM_FAULT_EMINT
//ReturnValue:NONE
/*************************************************************/
void EPT_SLock_CLR(EPT_EMINT_TypeDef EPT_X_EMINT)
{
	EPT0->EMSLCLR|=EPT_X_EMINT;
     b0c:	106f      	lrw      	r3, 0x20000034	// b48 <EPT_SW_Set_lock+0x20>
     b0e:	9360      	ld.w      	r3, (r3, 0x0)
     b10:	237f      	addi      	r3, 128
     b12:	9346      	ld.w      	r2, (r3, 0x18)
     b14:	6c08      	or      	r0, r2
     b16:	b306      	st.w      	r0, (r3, 0x18)
}
     b18:	783c      	jmp      	r15

00000b1a <EPT_HLock_CLR>:
//EPT_X_EMINT:EPT_EP0_EMINT~EPT_EP7_EMINT,EPT_CPU_FAULT_EMINT,EPT_MEM_FAULT_EMINT,EPT_EOM_FAULT_EMINT
//ReturnValue:NONE
/*************************************************************/
void EPT_HLock_CLR(EPT_EMINT_TypeDef EPT_X_EMINT)
{
	EPT0->EMHLCLR|=EPT_X_EMINT;
     b1a:	106c      	lrw      	r3, 0x20000034	// b48 <EPT_SW_Set_lock+0x20>
     b1c:	9360      	ld.w      	r3, (r3, 0x0)
     b1e:	237f      	addi      	r3, 128
     b20:	9348      	ld.w      	r2, (r3, 0x20)
     b22:	6c08      	or      	r0, r2
     b24:	b308      	st.w      	r0, (r3, 0x20)
}
     b26:	783c      	jmp      	r15

00000b28 <EPT_SW_Set_lock>:
//EPT_X_EMINT:EPT_EP0_EMINT~EPT_EP7_EMINT,EPT_CPU_FAULT_EMINT,EPT_MEM_FAULT_EMINT,EPT_EOM_FAULT_EMINT
//ReturnValue:NONE
/*************************************************************/
void EPT_SW_Set_lock(EPT_EMINT_TypeDef EPT_X_EMINT)
{
	EPT0->REGPROT = (0xA55A<<16) | 0xC73A;
     b28:	1068      	lrw      	r3, 0x20000034	// b48 <EPT_SW_Set_lock+0x20>
     b2a:	104a      	lrw      	r2, 0xa55ac73a	// b50 <EPT_SW_Set_lock+0x28>
     b2c:	9360      	ld.w      	r3, (r3, 0x0)
     b2e:	237f      	addi      	r3, 128
     b30:	b35a      	st.w      	r2, (r3, 0x68)
	EPT0->EMFRCR|=EPT_X_EMINT;
     b32:	9349      	ld.w      	r2, (r3, 0x24)
     b34:	6c08      	or      	r0, r2
     b36:	b309      	st.w      	r0, (r3, 0x24)
}
     b38:	783c      	jmp      	r15
     b3a:	0000      	bkpt
     b3c:	002000f0 	.long	0x002000f0
     b40:	00400f00 	.long	0x00400f00
     b44:	0080f000 	.long	0x0080f000
     b48:	20000034 	.long	0x20000034
     b4c:	20000078 	.long	0x20000078
     b50:	a55ac73a 	.long	0xa55ac73a

00000b54 <GPT_REG_PROT_UNLOCK>:
//EntryParameter:NONE
//ReturnValue:NONE
/*************************************************************/
void GPT_REG_PROT_UNLOCK()
{	
	 GPTA0->REGPROT=(0xa55a << 16 | 0xc73a);	
     b54:	1063      	lrw      	r3, 0x20000038	// b60 <GPT_REG_PROT_UNLOCK+0xc>
     b56:	1044      	lrw      	r2, 0xa55ac73a	// b64 <GPT_REG_PROT_UNLOCK+0x10>
     b58:	9360      	ld.w      	r3, (r3, 0x0)
     b5a:	237f      	addi      	r3, 128
     b5c:	b35a      	st.w      	r2, (r3, 0x68)
}
     b5e:	783c      	jmp      	r15
     b60:	20000038 	.long	0x20000038
     b64:	a55ac73a 	.long	0xa55ac73a

00000b68 <GPT_DeInit>:
//GPT RESET CLEAR ALL REGISTER
//EntryParameter:NONE
//ReturnValue:NONE
/*************************************************************/  
void GPT_DeInit(void)
{
     b68:	14d0      	push      	r15
	GPT_REG_PROT_UNLOCK();     //
     b6a:	e3fffff5 	bsr      	0xb54	// b54 <GPT_REG_PROT_UNLOCK>
	GPTA0->CEDR 		= 0xBE980000;
     b6e:	0170      	lrw      	r3, 0x20000038	// ea8 <GPT_Trigger_Configure+0x3e>
     b70:	0150      	lrw      	r2, 0xbe980000	// eac <GPT_Trigger_Configure+0x42>
     b72:	9360      	ld.w      	r3, (r3, 0x0)
     b74:	b340      	st.w      	r2, (r3, 0x0)
	GPTA0->RSSR 		= GPT_RESET_VALUE;
	GPTA0->PSCR 		= GPT_RESET_VALUE;
	GPTA0->CR 		= 0X00010010;
     b76:	0130      	lrw      	r1, 0x10010	// eb0 <GPT_Trigger_Configure+0x46>
	GPTA0->RSSR 		= GPT_RESET_VALUE;
     b78:	3200      	movi      	r2, 0
     b7a:	b341      	st.w      	r2, (r3, 0x4)
	GPTA0->PSCR 		= GPT_RESET_VALUE;
     b7c:	b342      	st.w      	r2, (r3, 0x8)
	GPTA0->CR 		= 0X00010010;
     b7e:	b323      	st.w      	r1, (r3, 0xc)
	GPTA0->GLDCR2 	= GPT_RESET_VALUE;
	GPTA0->PRDR 		= GPT_RESET_VALUE;
	GPTA0->PHSR 		= GPT_RESET_VALUE;
	GPTA0->CMPA 		= GPT_RESET_VALUE;
	GPTA0->CMPB 		= GPT_RESET_VALUE;
	GPTA0->CMPLDR 	= 0X00002490;
     b80:	0132      	lrw      	r1, 0x2490	// eb4 <GPT_Trigger_Configure+0x4a>
	GPTA0->SYNCR 	= GPT_RESET_VALUE;
     b82:	b344      	st.w      	r2, (r3, 0x10)
	GPTA0->GLDCR 	= GPT_RESET_VALUE;
     b84:	b345      	st.w      	r2, (r3, 0x14)
	GPTA0->GLDCFG 	= GPT_RESET_VALUE;
     b86:	b346      	st.w      	r2, (r3, 0x18)
	GPTA0->GLDCR2 	= GPT_RESET_VALUE;
     b88:	b347      	st.w      	r2, (r3, 0x1c)
	GPTA0->PRDR 		= GPT_RESET_VALUE;
     b8a:	b349      	st.w      	r2, (r3, 0x24)
	GPTA0->PHSR 		= GPT_RESET_VALUE;
     b8c:	b34a      	st.w      	r2, (r3, 0x28)
	GPTA0->CMPA 		= GPT_RESET_VALUE;
     b8e:	b34b      	st.w      	r2, (r3, 0x2c)
	GPTA0->CMPB 		= GPT_RESET_VALUE;
     b90:	b34c      	st.w      	r2, (r3, 0x30)
	GPTA0->CMPLDR 	= 0X00002490;
     b92:	b32f      	st.w      	r1, (r3, 0x3c)
	GPTA0->CNT 		= GPT_RESET_VALUE;
	GPTA0->AQLDR 	= 0X00000024;
     b94:	3124      	movi      	r1, 36
	GPTA0->CNT 		= GPT_RESET_VALUE;
     b96:	b350      	st.w      	r2, (r3, 0x40)
	GPTA0->AQLDR 	= 0X00000024;
     b98:	b331      	st.w      	r1, (r3, 0x44)
	GPTA0->AQCRA 	= GPT_RESET_VALUE;
	GPTA0->AQCRB 	= GPT_RESET_VALUE;
	GPTA0->AQOSF	 	= 0X00000100;
     b9a:	3180      	movi      	r1, 128
     b9c:	4121      	lsli      	r1, r1, 1
	GPTA0->AQCRA 	= GPT_RESET_VALUE;
     b9e:	b352      	st.w      	r2, (r3, 0x48)
	GPTA0->AQCRB 	= GPT_RESET_VALUE;
     ba0:	b353      	st.w      	r2, (r3, 0x4c)
	GPTA0->AQOSF	 	= 0X00000100;
     ba2:	b337      	st.w      	r1, (r3, 0x5c)
	GPTA0->AQCSF 	= GPT_RESET_VALUE;
     ba4:	b358      	st.w      	r2, (r3, 0x60)
	GPTA0->TRGFTCR 	= GPT_RESET_VALUE;
     ba6:	237f      	addi      	r3, 128
     ba8:	b34e      	st.w      	r2, (r3, 0x38)
	GPTA0->TRGFTWR	= GPT_RESET_VALUE;
     baa:	b34f      	st.w      	r2, (r3, 0x3c)
	GPTA0->EVTRG 	= GPT_RESET_VALUE;
     bac:	b350      	st.w      	r2, (r3, 0x40)
	GPTA0->EVPS 		= GPT_RESET_VALUE;
     bae:	b351      	st.w      	r2, (r3, 0x44)
	GPTA0->EVCNTINIT = GPT_RESET_VALUE;
     bb0:	b352      	st.w      	r2, (r3, 0x48)
	GPTA0->EVSWF 	= GPT_RESET_VALUE;
     bb2:	b353      	st.w      	r2, (r3, 0x4c)
	GPTA0->RISR		= GPT_RESET_VALUE;
     bb4:	b354      	st.w      	r2, (r3, 0x50)
	GPTA0->MISR 		= GPT_RESET_VALUE;
     bb6:	b355      	st.w      	r2, (r3, 0x54)
	GPTA0->IMCR 		= GPT_RESET_VALUE;
     bb8:	b356      	st.w      	r2, (r3, 0x58)
	GPTA0->ICR 		= GPT_RESET_VALUE;
     bba:	b357      	st.w      	r2, (r3, 0x5c)
	GPTA0->REGPROT 	= GPT_RESET_VALUE;
     bbc:	b35a      	st.w      	r2, (r3, 0x68)
}
     bbe:	1490      	pop      	r15

00000bc0 <GPT_IO_Init>:
//EntryParameter:GPT_CHA_PB01,GPT_CHA_PA09,GPT_CHA_PA010,GPT_CHB_PA010,GPT_CHB_PA011,GPT_CHB_PB00,GPT_CHB_PB01
//ReturnValue:NONE
/*************************************************************/
void GPT_IO_Init(GPT_IOSET_TypeDef IONAME)
{
	if(IONAME==GPT_CHA_PA03)
     bc0:	3840      	cmpnei      	r0, 0
     bc2:	080b      	bt      	0xbd8	// bd8 <GPT_IO_Init+0x18>
	{
		GPIOA0->CONLR=(GPIOA0->CONLR & 0XFFFF0FFF)|0x00006000;
     bc4:	0262      	lrw      	r3, 0x20000014	// eb8 <GPT_Trigger_Configure+0x4e>
     bc6:	32f0      	movi      	r2, 240
     bc8:	9320      	ld.w      	r1, (r3, 0x0)
     bca:	9160      	ld.w      	r3, (r1, 0x0)
     bcc:	4248      	lsli      	r2, r2, 8
     bce:	68c9      	andn      	r3, r2
     bd0:	3bad      	bseti      	r3, 13
     bd2:	3bae      	bseti      	r3, 14
	{
		GPIOB0->CONLR=(GPIOB0->CONLR & 0XF0FFFFFF)|0x04000000;
	}
	if(IONAME==GPT_CHB_PA04)
	{
		GPIOA0->CONLR=(GPIOA0->CONLR & 0XFFF0FFFF)|0x00060000;
     bd4:	b160      	st.w      	r3, (r1, 0x0)
	}
	if(IONAME==GPT_CHB_PB07)
	{
		GPIOB0->CONLR=(GPIOB0->CONLR & 0X0FFFFFFF)|0x40000000;
	}
}
     bd6:	783c      	jmp      	r15
	if(IONAME==GPT_CHA_PA13)
     bd8:	3841      	cmpnei      	r0, 1
     bda:	0809      	bt      	0xbec	// bec <GPT_IO_Init+0x2c>
		GPIOA1->CONLR=(GPIOA1->CONLR & 0XFFFF0FFF)|0x00004000;
     bdc:	0267      	lrw      	r3, 0x20000010	// ebc <GPT_Trigger_Configure+0x52>
     bde:	32f0      	movi      	r2, 240
     be0:	9320      	ld.w      	r1, (r3, 0x0)
     be2:	9160      	ld.w      	r3, (r1, 0x0)
     be4:	4248      	lsli      	r2, r2, 8
     be6:	68c9      	andn      	r3, r2
     be8:	3bae      	bseti      	r3, 14
     bea:	07f5      	br      	0xbd4	// bd4 <GPT_IO_Init+0x14>
	if(IONAME==GPT_CHA_PB00)
     bec:	3842      	cmpnei      	r0, 2
     bee:	0809      	bt      	0xc00	// c00 <GPT_IO_Init+0x40>
		GPIOB0->CONLR=(GPIOB0->CONLR & 0XFFFFFFF0)|0x00000008;
     bf0:	026b      	lrw      	r3, 0x2000000c	// ec0 <GPT_Trigger_Configure+0x56>
     bf2:	310f      	movi      	r1, 15
     bf4:	9340      	ld.w      	r2, (r3, 0x0)
     bf6:	9260      	ld.w      	r3, (r2, 0x0)
     bf8:	68c5      	andn      	r3, r1
     bfa:	3ba3      	bseti      	r3, 3
		GPIOB0->CONLR=(GPIOB0->CONLR & 0X0FFFFFFF)|0x40000000;
     bfc:	b260      	st.w      	r3, (r2, 0x0)
}
     bfe:	07ec      	br      	0xbd6	// bd6 <GPT_IO_Init+0x16>
	if(IONAME==GPT_CHA_PB06)
     c00:	3843      	cmpnei      	r0, 3
     c02:	0809      	bt      	0xc14	// c14 <GPT_IO_Init+0x54>
		GPIOB0->CONLR=(GPIOB0->CONLR & 0XF0FFFFFF)|0x04000000;
     c04:	0270      	lrw      	r3, 0x2000000c	// ec0 <GPT_Trigger_Configure+0x56>
     c06:	32f0      	movi      	r2, 240
     c08:	9320      	ld.w      	r1, (r3, 0x0)
     c0a:	9160      	ld.w      	r3, (r1, 0x0)
     c0c:	4254      	lsli      	r2, r2, 20
     c0e:	68c9      	andn      	r3, r2
     c10:	3bba      	bseti      	r3, 26
     c12:	07e1      	br      	0xbd4	// bd4 <GPT_IO_Init+0x14>
	if(IONAME==GPT_CHB_PA04)
     c14:	3844      	cmpnei      	r0, 4
     c16:	080a      	bt      	0xc2a	// c2a <GPT_IO_Init+0x6a>
		GPIOA0->CONLR=(GPIOA0->CONLR & 0XFFF0FFFF)|0x00060000;
     c18:	0277      	lrw      	r3, 0x20000014	// eb8 <GPT_Trigger_Configure+0x4e>
     c1a:	32f0      	movi      	r2, 240
     c1c:	9320      	ld.w      	r1, (r3, 0x0)
     c1e:	9160      	ld.w      	r3, (r1, 0x0)
     c20:	424c      	lsli      	r2, r2, 12
     c22:	68c9      	andn      	r3, r2
     c24:	3bb1      	bseti      	r3, 17
     c26:	3bb2      	bseti      	r3, 18
     c28:	07d6      	br      	0xbd4	// bd4 <GPT_IO_Init+0x14>
	if(IONAME==GPT_CHB_PA14)
     c2a:	3845      	cmpnei      	r0, 5
     c2c:	0809      	bt      	0xc3e	// c3e <GPT_IO_Init+0x7e>
		GPIOA1->CONLR=(GPIOA1->CONLR & 0XFFF0FFFF)|0x00040000;
     c2e:	027b      	lrw      	r3, 0x20000010	// ebc <GPT_Trigger_Configure+0x52>
     c30:	32f0      	movi      	r2, 240
     c32:	9320      	ld.w      	r1, (r3, 0x0)
     c34:	9160      	ld.w      	r3, (r1, 0x0)
     c36:	424c      	lsli      	r2, r2, 12
     c38:	68c9      	andn      	r3, r2
     c3a:	3bb2      	bseti      	r3, 18
     c3c:	07cc      	br      	0xbd4	// bd4 <GPT_IO_Init+0x14>
	if(IONAME==GPT_CHB_PB01)
     c3e:	3846      	cmpnei      	r0, 6
     c40:	0808      	bt      	0xc50	// c50 <GPT_IO_Init+0x90>
		GPIOB0->CONLR=(GPIOB0->CONLR & 0XFFFFFF0F)|0x00000080;
     c42:	027f      	lrw      	r3, 0x2000000c	// ec0 <GPT_Trigger_Configure+0x56>
     c44:	31f0      	movi      	r1, 240
     c46:	9340      	ld.w      	r2, (r3, 0x0)
     c48:	9260      	ld.w      	r3, (r2, 0x0)
     c4a:	68c5      	andn      	r3, r1
     c4c:	3ba7      	bseti      	r3, 7
     c4e:	07d7      	br      	0xbfc	// bfc <GPT_IO_Init+0x3c>
	if(IONAME==GPT_CHB_PB07)
     c50:	3847      	cmpnei      	r0, 7
     c52:	0bc2      	bt      	0xbd6	// bd6 <GPT_IO_Init+0x16>
		GPIOB0->CONLR=(GPIOB0->CONLR & 0X0FFFFFFF)|0x40000000;
     c54:	0364      	lrw      	r3, 0x2000000c	// ec0 <GPT_Trigger_Configure+0x56>
     c56:	9340      	ld.w      	r2, (r3, 0x0)
     c58:	9260      	ld.w      	r3, (r2, 0x0)
     c5a:	4364      	lsli      	r3, r3, 4
     c5c:	4b64      	lsri      	r3, r3, 4
     c5e:	3bbe      	bseti      	r3, 30
     c60:	07ce      	br      	0xbfc	// bfc <GPT_IO_Init+0x3c>

00000c62 <GPT_Configure>:
//GPT Init
//EntryParameter:
//ReturnValue:NONE
/*************************************************************/
void GPT_Configure(GPT_CLK_TypeDef GPTCLKX,GPT_CSS_TypeDef GCSSX,GPT_SHDWSTP_TypeDef GSHDWSTPX,U16_T GPSCX)
{
     c62:	14d4      	push      	r4-r7, r15
     c64:	1421      	subi      	r14, r14, 4
     c66:	6dc3      	mov      	r7, r0
     c68:	6d8f      	mov      	r6, r3
     c6a:	6d07      	mov      	r4, r1
     c6c:	b840      	st.w      	r2, (r14, 0x0)
	GPT_REG_PROT_UNLOCK();     //
     c6e:	e3ffff73 	bsr      	0xb54	// b54 <GPT_REG_PROT_UNLOCK>
	GPTA0->CEDR = GPTCLKX| GCSSX|GSHDWSTPX;
     c72:	9840      	ld.w      	r2, (r14, 0x0)
     c74:	6d08      	or      	r4, r2
     c76:	0372      	lrw      	r3, 0x20000038	// ea8 <GPT_Trigger_Configure+0x3e>
     c78:	6c13      	mov      	r0, r4
     c7a:	93a0      	ld.w      	r5, (r3, 0x0)
     c7c:	6c1c      	or      	r0, r7
     c7e:	b500      	st.w      	r0, (r5, 0x0)
	GPTA0->PSCR=GPSCX;
     c80:	b5c2      	st.w      	r6, (r5, 0x8)
}
     c82:	1401      	addi      	r14, r14, 4
     c84:	1494      	pop      	r4-r7, r15

00000c86 <GPT_WaveCtrl_Configure>:
/*************************************************************/
//GPT0->CR = (0X0<<0)|(0x00<<2)|(0x01<<3)|(0x00<<4)|(0X00<<6)|(0x01<<18)|(0x00<<9)|(0X00<<10)|(0x00<<11)|(0x00<<13) ;	
//GPT0->CMPLDR=(0X00<<0)|(0X00<<1)|(0X03<<4)|(0X03<<7);
void GPT_WaveCtrl_Configure(GPT_CNTMD_TypeDef GCNTMDX,GPT_SWSYN_TypeDef GSWSYNX,GPT_IDLEST_TypeDef GIDLEX,GPT_PRDLD0_TypeDef GPRDLD0,GPT_OPM_TypeDef GOPMX,
						GPT_BURST_TypeDef GBURSTX,GPT_CKS_TypeDef GCKS,GPT_CGSRC_TypeDef CGSRCX,GPT_CGFLT_TypeDef CGFLT,GPT_PSCLD_TypeDef PSCLDX)
{
     c86:	14d4      	push      	r4-r7, r15
     c88:	1427      	subi      	r14, r14, 28
     c8a:	b866      	st.w      	r3, (r14, 0x18)
     c8c:	986c      	ld.w      	r3, (r14, 0x30)
     c8e:	b860      	st.w      	r3, (r14, 0x0)
     c90:	986d      	ld.w      	r3, (r14, 0x34)
     c92:	b861      	st.w      	r3, (r14, 0x4)
     c94:	986e      	ld.w      	r3, (r14, 0x38)
     c96:	b862      	st.w      	r3, (r14, 0x8)
     c98:	986f      	ld.w      	r3, (r14, 0x3c)
     c9a:	b863      	st.w      	r3, (r14, 0xc)
     c9c:	9870      	ld.w      	r3, (r14, 0x40)
     c9e:	b864      	st.w      	r3, (r14, 0x10)
     ca0:	9871      	ld.w      	r3, (r14, 0x44)
     ca2:	6d43      	mov      	r5, r0
     ca4:	6d87      	mov      	r6, r1
     ca6:	6dcb      	mov      	r7, r2
     ca8:	b865      	st.w      	r3, (r14, 0x14)
	GPT_REG_PROT_UNLOCK();     //
     caa:	e3ffff55 	bsr      	0xb54	// b54 <GPT_REG_PROT_UNLOCK>
	GPTA0->CR =GCNTMDX|GSWSYNX|GIDLEX|GPRDLD0|GOPMX|GBURSTX|GCKS|CGSRCX|CGFLT|PSCLDX|GPT_WAVE_MODE;
     cae:	135f      	lrw      	r2, 0x20000038	// ea8 <GPT_Trigger_Configure+0x3e>
     cb0:	9280      	ld.w      	r4, (r2, 0x0)
     cb2:	9845      	ld.w      	r2, (r14, 0x14)
     cb4:	9864      	ld.w      	r3, (r14, 0x10)
     cb6:	3ab2      	bseti      	r2, 18
     cb8:	6c8c      	or      	r2, r3
     cba:	9863      	ld.w      	r3, (r14, 0xc)
     cbc:	6c8c      	or      	r2, r3
     cbe:	9862      	ld.w      	r3, (r14, 0x8)
     cc0:	6c8c      	or      	r2, r3
     cc2:	9861      	ld.w      	r3, (r14, 0x4)
     cc4:	6c8c      	or      	r2, r3
     cc6:	9860      	ld.w      	r3, (r14, 0x0)
     cc8:	6c8c      	or      	r2, r3
     cca:	9866      	ld.w      	r3, (r14, 0x18)
     ccc:	6cc8      	or      	r3, r2
     cce:	6dcc      	or      	r7, r3
     cd0:	6d9c      	or      	r6, r7
     cd2:	6d58      	or      	r5, r6
     cd4:	b4a3      	st.w      	r5, (r4, 0xc)
}
     cd6:	1407      	addi      	r14, r14, 28
     cd8:	1494      	pop      	r4-r7, r15

00000cda <GPT_WaveLoad_Configure>:
//GPT Wave control Init
//EntryParameter:
//ReturnValue:NONE
/*************************************************************/
void GPT_WaveLoad_Configure(GPT_SHDWAQA_TypeDef SHDWAQAX,GPT_SHDWAQB_TypeDef SHDWAQBX,GPT_AQLDA_TypeDef AQLDAX, GPT_AQLDB_TypeDef AQLDBX)
{
     cda:	14d4      	push      	r4-r7, r15
     cdc:	1421      	subi      	r14, r14, 4
     cde:	6dc7      	mov      	r7, r1
     ce0:	6d83      	mov      	r6, r0
     ce2:	6d0b      	mov      	r4, r2
     ce4:	b860      	st.w      	r3, (r14, 0x0)
	GPT_REG_PROT_UNLOCK();     //
     ce6:	e3ffff37 	bsr      	0xb54	// b54 <GPT_REG_PROT_UNLOCK>
	GPTA0->AQLDR=SHDWAQAX|SHDWAQBX|AQLDAX|AQLDBX;
     cea:	9860      	ld.w      	r3, (r14, 0x0)
     cec:	6d0c      	or      	r4, r3
     cee:	6c53      	mov      	r1, r4
     cf0:	134e      	lrw      	r2, 0x20000038	// ea8 <GPT_Trigger_Configure+0x3e>
     cf2:	6c5c      	or      	r1, r7
     cf4:	92a0      	ld.w      	r5, (r2, 0x0)
     cf6:	6c58      	or      	r1, r6
     cf8:	b531      	st.w      	r1, (r5, 0x44)
}
     cfa:	1401      	addi      	r14, r14, 4
     cfc:	1494      	pop      	r4-r7, r15

00000cfe <GPT_PHSEN_Config>:
//EPT_PHSDIR:EPT_PHSDIR_increase,EPT_PHSEN_decrease
//PHSR:0~0xffff
//ReturnValue:NONE
/*************************************************************/  
void GPT_PHSEN_Config(GPTA_PHSEN_CMD_Type GPT_PHSEN_CMD ,GPTA_PHSDIR_Type GPTA_PHSDIR ,U16_T PHSR)   
{
     cfe:	14d4      	push      	r4-r7, r15
     d00:	6dc3      	mov      	r7, r0
     d02:	6d87      	mov      	r6, r1
     d04:	6d4b      	mov      	r5, r2
	GPT_REG_PROT_UNLOCK();     //
     d06:	e3ffff27 	bsr      	0xb54	// b54 <GPT_REG_PROT_UNLOCK>
	GPTA0->CR=(GPTA0->CR&0xffffff7f)|GPT_PHSEN_CMD;                  
     d0a:	1368      	lrw      	r3, 0x20000038	// ea8 <GPT_Trigger_Configure+0x3e>
	GPTA0->PHSR=PHSR|GPTA_PHSDIR;                                               
     d0c:	6c97      	mov      	r2, r5
	GPTA0->CR=(GPTA0->CR&0xffffff7f)|GPT_PHSEN_CMD;                  
     d0e:	9380      	ld.w      	r4, (r3, 0x0)
     d10:	9463      	ld.w      	r3, (r4, 0xc)
     d12:	3b87      	bclri      	r3, 7
     d14:	6cdc      	or      	r3, r7
	GPTA0->PHSR=PHSR|GPTA_PHSDIR;                                               
     d16:	6c98      	or      	r2, r6
	GPTA0->CR=(GPTA0->CR&0xffffff7f)|GPT_PHSEN_CMD;                  
     d18:	b463      	st.w      	r3, (r4, 0xc)
	GPTA0->PHSR=PHSR|GPTA_PHSDIR;                                               
     d1a:	b44a      	st.w      	r2, (r4, 0x28)
}
     d1c:	1494      	pop      	r4-r7, r15

00000d1e <GPT_WaveOut_Configure>:
//EntryParameter:
//ReturnValue:NONE
/*************************************************************/
void GPT_WaveOut_Configure(GPT_GPTCHX_TypeDef GPTCHX,GPT_CASEL_TypeDef CASELX,GPT_CBSEL_TypeDef CBSELX,U8_T ZROX,U8_T PRDX,U8_T CAUX,
						U8_T CADX,U8_T CBUX,U8_T CBDX,U8_T T1UX,U8_T T1DX,U8_T T2UX,U8_T T2DX)
{
     d1e:	14d4      	push      	r4-r7, r15
     d20:	1429      	subi      	r14, r14, 36
     d22:	b862      	st.w      	r3, (r14, 0x8)
     d24:	1b0e      	addi      	r3, r14, 56
     d26:	8360      	ld.b      	r3, (r3, 0x0)
     d28:	b863      	st.w      	r3, (r14, 0xc)
     d2a:	1b0f      	addi      	r3, r14, 60
     d2c:	8360      	ld.b      	r3, (r3, 0x0)
     d2e:	b864      	st.w      	r3, (r14, 0x10)
     d30:	1b10      	addi      	r3, r14, 64
     d32:	b820      	st.w      	r1, (r14, 0x0)
     d34:	8320      	ld.b      	r1, (r3, 0x0)
     d36:	1b11      	addi      	r3, r14, 68
     d38:	8380      	ld.b      	r4, (r3, 0x0)
     d3a:	1b12      	addi      	r3, r14, 72
     d3c:	83a0      	ld.b      	r5, (r3, 0x0)
     d3e:	1b13      	addi      	r3, r14, 76
     d40:	83c0      	ld.b      	r6, (r3, 0x0)
     d42:	1b14      	addi      	r3, r14, 80
     d44:	83e0      	ld.b      	r7, (r3, 0x0)
     d46:	1b15      	addi      	r3, r14, 84
     d48:	b841      	st.w      	r2, (r14, 0x4)
     d4a:	8340      	ld.b      	r2, (r3, 0x0)
     d4c:	1b16      	addi      	r3, r14, 88
     d4e:	8360      	ld.b      	r3, (r3, 0x0)
     d50:	b808      	st.w      	r0, (r14, 0x20)
     d52:	b827      	st.w      	r1, (r14, 0x1c)
     d54:	b846      	st.w      	r2, (r14, 0x18)
     d56:	b865      	st.w      	r3, (r14, 0x14)
	GPT_REG_PROT_UNLOCK();     //
     d58:	e3fffefe 	bsr      	0xb54	// b54 <GPT_REG_PROT_UNLOCK>
	if(GPTCHX==GPT_CHA)
     d5c:	9808      	ld.w      	r0, (r14, 0x20)
     d5e:	3840      	cmpnei      	r0, 0
     d60:	9865      	ld.w      	r3, (r14, 0x14)
     d62:	9846      	ld.w      	r2, (r14, 0x18)
     d64:	9827      	ld.w      	r1, (r14, 0x1c)
     d66:	081f      	bt      	0xda4	// da4 <GPT_WaveOut_Configure+0x86>
	{
	GPTA0->AQCRA=CASELX|CBSELX|(ZROX<<0)|(PRDX<<2)|(CAUX<<4)|(CADX<<6)|(CBUX<<8)|(CBDX<<10)|(T1UX<<12)|(T1DX<<14)|(T2UX<<16)|(T2DX<<18);
     d68:	4372      	lsli      	r3, r3, 18
     d6a:	4250      	lsli      	r2, r2, 16
     d6c:	6c8c      	or      	r2, r3
     d6e:	47ee      	lsli      	r7, r7, 14
     d70:	6c9c      	or      	r2, r7
     d72:	46cc      	lsli      	r6, r6, 12
     d74:	6c98      	or      	r2, r6
     d76:	45aa      	lsli      	r5, r5, 10
     d78:	6c94      	or      	r2, r5
     d7a:	4488      	lsli      	r4, r4, 8
     d7c:	6c90      	or      	r2, r4
     d7e:	4126      	lsli      	r1, r1, 6
     d80:	9861      	ld.w      	r3, (r14, 0x4)
     d82:	6c48      	or      	r1, r2
     d84:	6c4c      	or      	r1, r3
     d86:	9862      	ld.w      	r3, (r14, 0x8)
     d88:	6c4c      	or      	r1, r3
     d8a:	9864      	ld.w      	r3, (r14, 0x10)
     d8c:	4364      	lsli      	r3, r3, 4
     d8e:	6c4c      	or      	r1, r3
     d90:	9860      	ld.w      	r3, (r14, 0x0)
     d92:	6c4c      	or      	r1, r3
     d94:	9863      	ld.w      	r3, (r14, 0xc)
     d96:	4362      	lsli      	r3, r3, 2
     d98:	1204      	lrw      	r0, 0x20000038	// ea8 <GPT_Trigger_Configure+0x3e>
     d9a:	6c4c      	or      	r1, r3
     d9c:	9000      	ld.w      	r0, (r0, 0x0)
     d9e:	b032      	st.w      	r1, (r0, 0x48)
	}
	if(GPTCHX==GPT_CHB)
	{
	GPTA0->AQCRB=CASELX|CBSELX|(ZROX<<0)|(PRDX<<2)|(CAUX<<4)|(CADX<<6)|(CBUX<<8)|(CBDX<<10)|(T1UX<<12)|(T1DX<<14)|(T2UX<<16)|(T2DX<<18);
	}
}
     da0:	1409      	addi      	r14, r14, 36
     da2:	1494      	pop      	r4-r7, r15
	if(GPTCHX==GPT_CHB)
     da4:	3841      	cmpnei      	r0, 1
     da6:	0bfd      	bt      	0xda0	// da0 <GPT_WaveOut_Configure+0x82>
	GPTA0->AQCRB=CASELX|CBSELX|(ZROX<<0)|(PRDX<<2)|(CAUX<<4)|(CADX<<6)|(CBUX<<8)|(CBDX<<10)|(T1UX<<12)|(T1DX<<14)|(T2UX<<16)|(T2DX<<18);
     da8:	4372      	lsli      	r3, r3, 18
     daa:	4250      	lsli      	r2, r2, 16
     dac:	6c8c      	or      	r2, r3
     dae:	47ee      	lsli      	r7, r7, 14
     db0:	6c9c      	or      	r2, r7
     db2:	46cc      	lsli      	r6, r6, 12
     db4:	6c98      	or      	r2, r6
     db6:	45aa      	lsli      	r5, r5, 10
     db8:	6c94      	or      	r2, r5
     dba:	4488      	lsli      	r4, r4, 8
     dbc:	6c90      	or      	r2, r4
     dbe:	4126      	lsli      	r1, r1, 6
     dc0:	9861      	ld.w      	r3, (r14, 0x4)
     dc2:	6c48      	or      	r1, r2
     dc4:	6c4c      	or      	r1, r3
     dc6:	9862      	ld.w      	r3, (r14, 0x8)
     dc8:	6c4c      	or      	r1, r3
     dca:	9864      	ld.w      	r3, (r14, 0x10)
     dcc:	4364      	lsli      	r3, r3, 4
     dce:	6c4c      	or      	r1, r3
     dd0:	9860      	ld.w      	r3, (r14, 0x0)
     dd2:	6c4c      	or      	r1, r3
     dd4:	9863      	ld.w      	r3, (r14, 0xc)
     dd6:	4362      	lsli      	r3, r3, 2
     dd8:	1114      	lrw      	r0, 0x20000038	// ea8 <GPT_Trigger_Configure+0x3e>
     dda:	6c4c      	or      	r1, r3
     ddc:	9000      	ld.w      	r0, (r0, 0x0)
     dde:	b033      	st.w      	r1, (r0, 0x4c)
}
     de0:	07e0      	br      	0xda0	// da0 <GPT_WaveOut_Configure+0x82>

00000de2 <GPT_Capture_Config>:
//ReturnValue:NONE
/*************************************************************/  
void GPT_Capture_Config(GPT_CNTMD_SELECTE_Type GPT_CNTMD_SELECTE_X  , GPT_CAPMD_SELECTE_Type GPT_CAPMD_SELECTE_X , GPT_CAPLDEN_TypeDef CAP_CMD 
					, GPT_LDARST_TypeDef GPT_LOAD_CMPA_RST_CMD , GPT_LDBRST_TypeDef GPT_LOAD_CMPB_RST_CMD , 
					GPT_LOAD_CMPC_RST_CMD_Type GPT_LOAD_CMPC_RST_CMD , GPT_LOAD_CMPD_RST_CMD_Type GPT_LOAD_CMPD_RST_CMD, U8_T GPT_STOP_WRAP )
{
     de2:	14d4      	push      	r4-r7, r15
     de4:	1426      	subi      	r14, r14, 24
     de6:	b863      	st.w      	r3, (r14, 0xc)
     de8:	986b      	ld.w      	r3, (r14, 0x2c)
     dea:	b860      	st.w      	r3, (r14, 0x0)
     dec:	986c      	ld.w      	r3, (r14, 0x30)
     dee:	b861      	st.w      	r3, (r14, 0x4)
     df0:	986d      	ld.w      	r3, (r14, 0x34)
     df2:	b862      	st.w      	r3, (r14, 0x8)
     df4:	1b0e      	addi      	r3, r14, 56
     df6:	6dc3      	mov      	r7, r0
     df8:	b825      	st.w      	r1, (r14, 0x14)
     dfa:	b844      	st.w      	r2, (r14, 0x10)
     dfc:	83a0      	ld.b      	r5, (r3, 0x0)
	GPT_REG_PROT_UNLOCK();     //
     dfe:	e3fffeab 	bsr      	0xb54	// b54 <GPT_REG_PROT_UNLOCK>
	GPTA0->CR=(GPTA0->CR&0xf800fec0)|GPT_CNTMD_SELECTE_X|(0x0<<2)|(0x0<<3)|(0x0<<4)|CAP_CMD|GPT_CAPMD_SELECTE_X|(0X0<<16)|(0x0<<18)|(GPT_STOP_WRAP<<21)|
     e02:	110a      	lrw      	r0, 0x20000038	// ea8 <GPT_Trigger_Configure+0x3e>
     e04:	45b5      	lsli      	r5, r5, 21
     e06:	90c0      	ld.w      	r6, (r0, 0x0)
     e08:	9683      	ld.w      	r4, (r6, 0xc)
     e0a:	110f      	lrw      	r0, 0x7ff013f	// ec4 <GPT_Trigger_Configure+0x5a>
				GPT_LOAD_CMPA_RST_CMD|GPT_LOAD_CMPB_RST_CMD|GPT_LOAD_CMPC_RST_CMD|GPT_LOAD_CMPD_RST_CMD;
     e0c:	9862      	ld.w      	r3, (r14, 0x8)
	GPTA0->CR=(GPTA0->CR&0xf800fec0)|GPT_CNTMD_SELECTE_X|(0x0<<2)|(0x0<<3)|(0x0<<4)|CAP_CMD|GPT_CAPMD_SELECTE_X|(0X0<<16)|(0x0<<18)|(GPT_STOP_WRAP<<21)|
     e0e:	6901      	andn      	r4, r0
				GPT_LOAD_CMPA_RST_CMD|GPT_LOAD_CMPB_RST_CMD|GPT_LOAD_CMPC_RST_CMD|GPT_LOAD_CMPD_RST_CMD;
     e10:	6d0c      	or      	r4, r3
     e12:	9861      	ld.w      	r3, (r14, 0x4)
     e14:	6d0c      	or      	r4, r3
     e16:	9860      	ld.w      	r3, (r14, 0x0)
     e18:	6d0c      	or      	r4, r3
     e1a:	9863      	ld.w      	r3, (r14, 0xc)
     e1c:	6cd0      	or      	r3, r4
     e1e:	9825      	ld.w      	r1, (r14, 0x14)
     e20:	6c4c      	or      	r1, r3
     e22:	9844      	ld.w      	r2, (r14, 0x10)
     e24:	6c84      	or      	r2, r1
     e26:	6dc8      	or      	r7, r2
     e28:	6d5c      	or      	r5, r7
	GPTA0->CR=(GPTA0->CR&0xf800fec0)|GPT_CNTMD_SELECTE_X|(0x0<<2)|(0x0<<3)|(0x0<<4)|CAP_CMD|GPT_CAPMD_SELECTE_X|(0X0<<16)|(0x0<<18)|(GPT_STOP_WRAP<<21)|
     e2a:	b6a3      	st.w      	r5, (r6, 0xc)
}
     e2c:	1406      	addi      	r14, r14, 24
     e2e:	1494      	pop      	r4-r7, r15

00000e30 <GPT_SyncSet_Configure>:
//EntryParameter:
//ReturnValue:NONE
/*************************************************************/
void GPT_SyncSet_Configure(GPT_SYNCENX_TypeDef SYNCENx,GPT_OSTMDX_TypeDef OSTMDx,GPT_TXREARM0_TypeDef TXREARM0x,GPT_TRGO0SEL_TypeDef TRGO0SELx,
							GPT_TRGO1SEL_TypeDef TRGO1SELx,GPT_AREARM_TypeDef AREARMx)
{
     e30:	14d4      	push      	r4-r7, r15
     e32:	1423      	subi      	r14, r14, 12
     e34:	b862      	st.w      	r3, (r14, 0x8)
     e36:	9868      	ld.w      	r3, (r14, 0x20)
     e38:	b860      	st.w      	r3, (r14, 0x0)
     e3a:	9869      	ld.w      	r3, (r14, 0x24)
     e3c:	6d87      	mov      	r6, r1
     e3e:	6dcb      	mov      	r7, r2
     e40:	6d43      	mov      	r5, r0
     e42:	b861      	st.w      	r3, (r14, 0x4)
	GPT_REG_PROT_UNLOCK();     //
     e44:	e3fffe88 	bsr      	0xb54	// b54 <GPT_REG_PROT_UNLOCK>
	GPTA0->SYNCR |= SYNCENx| OSTMDx| TXREARM0x |TRGO0SELx|TRGO1SELx|AREARMx;
     e48:	1058      	lrw      	r2, 0x20000038	// ea8 <GPT_Trigger_Configure+0x3e>
     e4a:	9280      	ld.w      	r4, (r2, 0x0)
     e4c:	9861      	ld.w      	r3, (r14, 0x4)
     e4e:	9840      	ld.w      	r2, (r14, 0x0)
     e50:	9424      	ld.w      	r1, (r4, 0x10)
     e52:	6c8c      	or      	r2, r3
     e54:	6c48      	or      	r1, r2
     e56:	9862      	ld.w      	r3, (r14, 0x8)
     e58:	6c4c      	or      	r1, r3
     e5a:	6c87      	mov      	r2, r1
     e5c:	6c9c      	or      	r2, r7
     e5e:	6c98      	or      	r2, r6
     e60:	6c4b      	mov      	r1, r2
     e62:	6c54      	or      	r1, r5
     e64:	b424      	st.w      	r1, (r4, 0x10)
}
     e66:	1403      	addi      	r14, r14, 12
     e68:	1494      	pop      	r4-r7, r15

00000e6a <GPT_Trigger_Configure>:
//EntryParameter:
//ReturnValue:NONE
/*************************************************************/
void GPT_Trigger_Configure(GPT_SRCSEL_TypeDef SRCSELx,GPT_BLKINV_TypeDef BLKINVx,GPT_ALIGNMD_TypeDef ALIGNMDx,GPT_CROSSMD_TypeDef CROSSMDx,
						U16_T G_OFFSET_DATA,U16_T G_WINDOW_DATA)
{
     e6a:	14d4      	push      	r4-r7, r15
     e6c:	1423      	subi      	r14, r14, 12
     e6e:	6d83      	mov      	r6, r0
     e70:	b822      	st.w      	r1, (r14, 0x8)
     e72:	b841      	st.w      	r2, (r14, 0x4)
     e74:	b860      	st.w      	r3, (r14, 0x0)
     e76:	d8ee1010 	ld.h      	r7, (r14, 0x20)
     e7a:	d88e1012 	ld.h      	r4, (r14, 0x24)
	GPT_REG_PROT_UNLOCK();     //
     e7e:	e3fffe6b 	bsr      	0xb54	// b54 <GPT_REG_PROT_UNLOCK>
	GPTA0->TRGFTCR |= SRCSELx| BLKINVx|ALIGNMDx| CROSSMDx;
     e82:	100a      	lrw      	r0, 0x20000038	// ea8 <GPT_Trigger_Configure+0x3e>
	GPTA0->TRGFTWR |= G_OFFSET_DATA |(G_WINDOW_DATA<<16);
     e84:	4490      	lsli      	r4, r4, 16
	GPTA0->TRGFTCR |= SRCSELx| BLKINVx|ALIGNMDx| CROSSMDx;
     e86:	90a0      	ld.w      	r5, (r0, 0x0)
     e88:	257f      	addi      	r5, 128
     e8a:	950e      	ld.w      	r0, (r5, 0x38)
     e8c:	9860      	ld.w      	r3, (r14, 0x0)
     e8e:	6cc0      	or      	r3, r0
     e90:	9841      	ld.w      	r2, (r14, 0x4)
     e92:	6c8c      	or      	r2, r3
     e94:	9822      	ld.w      	r1, (r14, 0x8)
     e96:	6c48      	or      	r1, r2
     e98:	6c58      	or      	r1, r6
     e9a:	b52e      	st.w      	r1, (r5, 0x38)
	GPTA0->TRGFTWR |= G_OFFSET_DATA |(G_WINDOW_DATA<<16);
     e9c:	956f      	ld.w      	r3, (r5, 0x3c)
     e9e:	6dd0      	or      	r7, r4
     ea0:	6dcc      	or      	r7, r3
     ea2:	b5ef      	st.w      	r7, (r5, 0x3c)
	
}
     ea4:	1403      	addi      	r14, r14, 12
     ea6:	1494      	pop      	r4-r7, r15
     ea8:	20000038 	.long	0x20000038
     eac:	be980000 	.long	0xbe980000
     eb0:	00010010 	.long	0x00010010
     eb4:	00002490 	.long	0x00002490
     eb8:	20000014 	.long	0x20000014
     ebc:	20000010 	.long	0x20000010
     ec0:	2000000c 	.long	0x2000000c
     ec4:	07ff013f 	.long	0x07ff013f

00000ec8 <GPT_EVTRG_Configure>:
//EntryParameter:
//ReturnValue:NONE
/*************************************************************/
void GPT_EVTRG_Configure(GPT_TRGSRC0_TypeDef TRGSRC0x,GPT_TRGSRC1_TypeDef TRGSRC1x,GPT_ESYN0OE_TypeDef ESYN0OEx,GPT_ESYN1OE_TypeDef ESYN1OEx,
						GPT_CNT0INIT_TypeDef CNT0INITx,GPT_CNT1INIT_TypeDef CNT1INITx,U8_T TRGEV0prd,U8_T TRGEV1prd,U8_T TRGEV0cnt,U8_T TRGEV1cnt)
{
     ec8:	14d4      	push      	r4-r7, r15
     eca:	1428      	subi      	r14, r14, 32
     ecc:	b864      	st.w      	r3, (r14, 0x10)
     ece:	986d      	ld.w      	r3, (r14, 0x34)
     ed0:	b860      	st.w      	r3, (r14, 0x0)
     ed2:	986e      	ld.w      	r3, (r14, 0x38)
     ed4:	b861      	st.w      	r3, (r14, 0x4)
     ed6:	1b0f      	addi      	r3, r14, 60
     ed8:	8360      	ld.b      	r3, (r3, 0x0)
     eda:	b862      	st.w      	r3, (r14, 0x8)
     edc:	1b10      	addi      	r3, r14, 64
     ede:	8360      	ld.b      	r3, (r3, 0x0)
     ee0:	b863      	st.w      	r3, (r14, 0xc)
     ee2:	1b11      	addi      	r3, r14, 68
     ee4:	83a0      	ld.b      	r5, (r3, 0x0)
	GPT_REG_PROT_UNLOCK();     //
	GPTA0->EVTRG |= TRGSRC0x |TRGSRC1x|ESYN0OEx|ESYN1OEx|CNT0INITx|CNT1INITx;
     ee6:	139b      	lrw      	r4, 0x20000038	// 10d0 <GPT_INT_DISABLE+0x12>
{
     ee8:	1b12      	addi      	r3, r14, 72
     eea:	b807      	st.w      	r0, (r14, 0x1c)
     eec:	b826      	st.w      	r1, (r14, 0x18)
     eee:	b845      	st.w      	r2, (r14, 0x14)
     ef0:	83e0      	ld.b      	r7, (r3, 0x0)
	GPT_REG_PROT_UNLOCK();     //
     ef2:	e3fffe31 	bsr      	0xb54	// b54 <GPT_REG_PROT_UNLOCK>
	GPTA0->EVTRG |= TRGSRC0x |TRGSRC1x|ESYN0OEx|ESYN1OEx|CNT0INITx|CNT1INITx;
     ef6:	94c0      	ld.w      	r6, (r4, 0x0)
     ef8:	267f      	addi      	r6, 128
     efa:	9690      	ld.w      	r4, (r6, 0x40)
     efc:	9861      	ld.w      	r3, (r14, 0x4)
     efe:	6d0c      	or      	r4, r3
     f00:	9860      	ld.w      	r3, (r14, 0x0)
     f02:	6d0c      	or      	r4, r3
     f04:	9864      	ld.w      	r3, (r14, 0x10)
     f06:	9845      	ld.w      	r2, (r14, 0x14)
     f08:	6cd0      	or      	r3, r4
     f0a:	6cc8      	or      	r3, r2
     f0c:	9826      	ld.w      	r1, (r14, 0x18)
	GPTA0->EVPS  |= TRGEV0prd|(TRGEV1prd<<4)|(TRGEV0cnt<<16)|(TRGEV1cnt<<20);
     f0e:	47f4      	lsli      	r7, r7, 20
     f10:	45b0      	lsli      	r5, r5, 16
	GPTA0->EVTRG |= TRGSRC0x |TRGSRC1x|ESYN0OEx|ESYN1OEx|CNT0INITx|CNT1INITx;
     f12:	6c4c      	or      	r1, r3
	GPTA0->EVPS  |= TRGEV0prd|(TRGEV1prd<<4)|(TRGEV0cnt<<16)|(TRGEV1cnt<<20);
     f14:	9842      	ld.w      	r2, (r14, 0x8)
	GPTA0->EVTRG |= TRGSRC0x |TRGSRC1x|ESYN0OEx|ESYN1OEx|CNT0INITx|CNT1INITx;
     f16:	9807      	ld.w      	r0, (r14, 0x1c)
	GPTA0->EVPS  |= TRGEV0prd|(TRGEV1prd<<4)|(TRGEV0cnt<<16)|(TRGEV1cnt<<20);
     f18:	6d5c      	or      	r5, r7
	GPTA0->EVTRG |= TRGSRC0x |TRGSRC1x|ESYN0OEx|ESYN1OEx|CNT0INITx|CNT1INITx;
     f1a:	6c04      	or      	r0, r1
	GPTA0->EVPS  |= TRGEV0prd|(TRGEV1prd<<4)|(TRGEV0cnt<<16)|(TRGEV1cnt<<20);
     f1c:	6d48      	or      	r5, r2
     f1e:	9843      	ld.w      	r2, (r14, 0xc)
	GPTA0->EVTRG |= TRGSRC0x |TRGSRC1x|ESYN0OEx|ESYN1OEx|CNT0INITx|CNT1INITx;
     f20:	b610      	st.w      	r0, (r6, 0x40)
	GPTA0->EVPS  |= TRGEV0prd|(TRGEV1prd<<4)|(TRGEV0cnt<<16)|(TRGEV1cnt<<20);
     f22:	42e4      	lsli      	r7, r2, 4
     f24:	9671      	ld.w      	r3, (r6, 0x44)
     f26:	6d5c      	or      	r5, r7
     f28:	6d4c      	or      	r5, r3
     f2a:	b6b1      	st.w      	r5, (r6, 0x44)
}
     f2c:	1408      	addi      	r14, r14, 32
     f2e:	1494      	pop      	r4-r7, r15

00000f30 <GPT_OneceForce_Out>:
//GPT OneceForce Out
//EntryParameter:
//ReturnValue:NONE
/*************************************************************/
void GPT_OneceForce_Out(GPT_CHAFORCE_TypeDef CHAFORCEX,U8_T AFORCE_STATUS,GPT_CHBFORCE_TypeDef CHBFORCEX,U8_T BFORCE_STATUS,GPT_FORCELD_TypeDef FORCELDX)
{
     f30:	14d4      	push      	r4-r7, r15
     f32:	1422      	subi      	r14, r14, 8
     f34:	6dcf      	mov      	r7, r3
     f36:	9867      	ld.w      	r3, (r14, 0x1c)
     f38:	6d43      	mov      	r5, r0
     f3a:	6d07      	mov      	r4, r1
     f3c:	b841      	st.w      	r2, (r14, 0x4)
     f3e:	b860      	st.w      	r3, (r14, 0x0)
	GPT_REG_PROT_UNLOCK();     //
     f40:	e3fffe0a 	bsr      	0xb54	// b54 <GPT_REG_PROT_UNLOCK>
	GPTA0->AQOSF =CHAFORCEX|CHBFORCEX|FORCELDX|(AFORCE_STATUS<<1)|(BFORCE_STATUS<<5);
     f44:	1363      	lrw      	r3, 0x20000038	// 10d0 <GPT_INT_DISABLE+0x12>
     f46:	4421      	lsli      	r1, r4, 1
     f48:	93c0      	ld.w      	r6, (r3, 0x0)
     f4a:	9841      	ld.w      	r2, (r14, 0x4)
     f4c:	4765      	lsli      	r3, r7, 5
     f4e:	6c8c      	or      	r2, r3
     f50:	9860      	ld.w      	r3, (r14, 0x0)
     f52:	6c8c      	or      	r2, r3
     f54:	6c94      	or      	r2, r5
     f56:	6c48      	or      	r1, r2
     f58:	b637      	st.w      	r1, (r6, 0x5c)
}
     f5a:	1402      	addi      	r14, r14, 8
     f5c:	1494      	pop      	r4-r7, r15

00000f5e <GPT_Force_Out>:
//GPT Continue Force Out
//EntryParameter:
//ReturnValue:NONE
/*************************************************************/
void GPT_Force_Out(GPT_FORCEA_TypeDef FORCEAX,GPT_FORCEB_TypeDef FORCEBX)
{
     f5e:	14d2      	push      	r4-r5, r15
     f60:	6d03      	mov      	r4, r0
     f62:	6d47      	mov      	r5, r1
	GPT_REG_PROT_UNLOCK();     //
     f64:	e3fffdf8 	bsr      	0xb54	// b54 <GPT_REG_PROT_UNLOCK>
	GPTA0->AQCSF =FORCEAX|FORCEBX;
     f68:	127a      	lrw      	r3, 0x20000038	// 10d0 <GPT_INT_DISABLE+0x12>
     f6a:	6d14      	or      	r4, r5
     f6c:	9360      	ld.w      	r3, (r3, 0x0)
     f6e:	b398      	st.w      	r4, (r3, 0x60)
}
     f70:	1492      	pop      	r4-r5, r15

00000f72 <GPT_CmpLoad_Configure>:
//GPT Wave Compare Load Init
//EntryParameter:
//ReturnValue:NONE
/*************************************************************/
void GPT_CmpLoad_Configure(GPT_SHDWCMPA_TypeDef SHDWCMPAX,GPT_SHDWCMPB_TypeDef SHDWCMPBX,GPT_LDAMD_TypeDef LDAMDX,GPT_LDBMD_TypeDef LDBMDX)
{
     f72:	14d4      	push      	r4-r7, r15
     f74:	1421      	subi      	r14, r14, 4
     f76:	6dc7      	mov      	r7, r1
     f78:	6d83      	mov      	r6, r0
     f7a:	6d0b      	mov      	r4, r2
     f7c:	b860      	st.w      	r3, (r14, 0x0)
	GPT_REG_PROT_UNLOCK();     //
     f7e:	e3fffdeb 	bsr      	0xb54	// b54 <GPT_REG_PROT_UNLOCK>
	GPTA0->CMPLDR=SHDWCMPAX|SHDWCMPBX|LDAMDX|LDBMDX;
     f82:	9860      	ld.w      	r3, (r14, 0x0)
     f84:	6d0c      	or      	r4, r3
     f86:	6c53      	mov      	r1, r4
     f88:	1252      	lrw      	r2, 0x20000038	// 10d0 <GPT_INT_DISABLE+0x12>
     f8a:	6c5c      	or      	r1, r7
     f8c:	92a0      	ld.w      	r5, (r2, 0x0)
     f8e:	6c58      	or      	r1, r6
     f90:	b52f      	st.w      	r1, (r5, 0x3c)
}
     f92:	1401      	addi      	r14, r14, 4
     f94:	1494      	pop      	r4-r7, r15

00000f96 <GPT_Debug_Mode>:
//GPT DEBUG MODE
//EntryParameter:
//ReturnValue:NONE
/*************************************************************/
void GPT_Debug_Mode(FunctionalStatus NewState)
{
     f96:	14d1      	push      	r4, r15
     f98:	6d03      	mov      	r4, r0
	GPT_REG_PROT_UNLOCK();     //
     f9a:	e3fffddd 	bsr      	0xb54	// b54 <GPT_REG_PROT_UNLOCK>
     f9e:	126d      	lrw      	r3, 0x20000038	// 10d0 <GPT_INT_DISABLE+0x12>
	if (NewState != DISABLE)
     fa0:	3c40      	cmpnei      	r4, 0
	{
		GPTA0->CEDR  |= GPT_DEBUG_MODE;						
     fa2:	9340      	ld.w      	r2, (r3, 0x0)
     fa4:	9260      	ld.w      	r3, (r2, 0x0)
	if (NewState != DISABLE)
     fa6:	0c04      	bf      	0xfae	// fae <GPT_Debug_Mode+0x18>
		GPTA0->CEDR  |= GPT_DEBUG_MODE;						
     fa8:	3ba1      	bseti      	r3, 1
	}
	else
	{
		GPTA0->CEDR  &= ~GPT_DEBUG_MODE;					
     faa:	b260      	st.w      	r3, (r2, 0x0)
	}
}
     fac:	1491      	pop      	r4, r15
		GPTA0->CEDR  &= ~GPT_DEBUG_MODE;					
     fae:	3b81      	bclri      	r3, 1
     fb0:	07fd      	br      	0xfaa	// faa <GPT_Debug_Mode+0x14>

00000fb2 <GPT_Start>:
// GPT start
//EntryParameter:NONE
//ReturnValue:NONE
/*************************************************************/ 
void GPT_Start(void)
{
     fb2:	14d0      	push      	r15
    GPT_REG_PROT_UNLOCK();     //
     fb4:	e3fffdd0 	bsr      	0xb54	// b54 <GPT_REG_PROT_UNLOCK>
	GPTA0->RSSR |= 0X01;
     fb8:	1266      	lrw      	r3, 0x20000038	// 10d0 <GPT_INT_DISABLE+0x12>
     fba:	9340      	ld.w      	r2, (r3, 0x0)
     fbc:	9261      	ld.w      	r3, (r2, 0x4)
     fbe:	3ba0      	bseti      	r3, 0
     fc0:	b261      	st.w      	r3, (r2, 0x4)
}
     fc2:	1490      	pop      	r15

00000fc4 <GPT_Stop>:
// GPT stop
//EntryParameter:NONE
//ReturnValue:NONE
/*************************************************************/ 
void GPT_Stop(void)
{
     fc4:	14d0      	push      	r15
	GPT_REG_PROT_UNLOCK();     //
     fc6:	e3fffdc7 	bsr      	0xb54	// b54 <GPT_REG_PROT_UNLOCK>
	GPTA0->RSSR &= 0XFFFFFFFE;
     fca:	1262      	lrw      	r3, 0x20000038	// 10d0 <GPT_INT_DISABLE+0x12>
     fcc:	9340      	ld.w      	r2, (r3, 0x0)
     fce:	9261      	ld.w      	r3, (r2, 0x4)
     fd0:	3b80      	bclri      	r3, 0
     fd2:	b261      	st.w      	r3, (r2, 0x4)
}
     fd4:	1490      	pop      	r15

00000fd6 <GPT_Soft_Reset>:
// GPT soft reset
//EntryParameter:NONE
//ReturnValue:NONE
/*************************************************************/ 
void GPT_Soft_Reset(void)
{
     fd6:	14d0      	push      	r15
	GPT_REG_PROT_UNLOCK();     //
     fd8:	e3fffdbe 	bsr      	0xb54	// b54 <GPT_REG_PROT_UNLOCK>
	GPTA0->RSSR |= (0X5<<12);
     fdc:	117d      	lrw      	r3, 0x20000038	// 10d0 <GPT_INT_DISABLE+0x12>
     fde:	9340      	ld.w      	r2, (r3, 0x0)
     fe0:	9261      	ld.w      	r3, (r2, 0x4)
     fe2:	3bac      	bseti      	r3, 12
     fe4:	3bae      	bseti      	r3, 14
     fe6:	b261      	st.w      	r3, (r2, 0x4)
}
     fe8:	1490      	pop      	r15

00000fea <GPT_Cap_Rearm>:
// GPT Capture rearm
//EntryParameter:NONE
//ReturnValue:NONE
/*************************************************************/ 
void GPT_Cap_Rearm(void)
{
     fea:	14d0      	push      	r15
	GPT_REG_PROT_UNLOCK();     //
     fec:	e3fffdb4 	bsr      	0xb54	// b54 <GPT_REG_PROT_UNLOCK>
	GPTA0->CR |= (0X01<<19);
     ff0:	1178      	lrw      	r3, 0x20000038	// 10d0 <GPT_INT_DISABLE+0x12>
     ff2:	9340      	ld.w      	r2, (r3, 0x0)
     ff4:	9263      	ld.w      	r3, (r2, 0xc)
     ff6:	3bb3      	bseti      	r3, 19
     ff8:	b263      	st.w      	r3, (r2, 0xc)
}
     ffa:	1490      	pop      	r15

00000ffc <GPT_Mode_CMD>:
// GPT MODE
//EntryParameter:NONE
//ReturnValue:NONE
/*************************************************************/ 
void GPT_Mode_CMD(GPT_WAVE_TypeDef WAVEX)
{
     ffc:	14d1      	push      	r4, r15
     ffe:	6d03      	mov      	r4, r0
	GPT_REG_PROT_UNLOCK();     //
    1000:	e3fffdaa 	bsr      	0xb54	// b54 <GPT_REG_PROT_UNLOCK>
	GPTA0->CR |= WAVEX;
    1004:	1173      	lrw      	r3, 0x20000038	// 10d0 <GPT_INT_DISABLE+0x12>
    1006:	9340      	ld.w      	r2, (r3, 0x0)
    1008:	9263      	ld.w      	r3, (r2, 0xc)
    100a:	6cd0      	or      	r3, r4
    100c:	b263      	st.w      	r3, (r2, 0xc)
}
    100e:	1491      	pop      	r4, r15

00001010 <GPT_REARM_Write>:
// GPT soft reset at once sync mode
//EntryParameter:NONE
//ReturnValue:NONE
/*************************************************************/ 
void GPT_REARM_Write(void)
{
    1010:	14d0      	push      	r15
	GPT_REG_PROT_UNLOCK();     //
    1012:	e3fffda1 	bsr      	0xb54	// b54 <GPT_REG_PROT_UNLOCK>
	GPTA0->SYNCR |= (0X1<<16);
    1016:	116f      	lrw      	r3, 0x20000038	// 10d0 <GPT_INT_DISABLE+0x12>
    1018:	9340      	ld.w      	r2, (r3, 0x0)
    101a:	9264      	ld.w      	r3, (r2, 0x10)
    101c:	3bb0      	bseti      	r3, 16
    101e:	b264      	st.w      	r3, (r2, 0x10)
}
    1020:	1490      	pop      	r15

00001022 <GPT_REARM_Read>:
// GPT soft read at once sync mode
//EntryParameter:NONE
//ReturnValue:NONE
/*************************************************************/ 
U8_T GPT_REARM_Read(void)
{
    1022:	14d0      	push      	r15
	uint8_t value = 0;
    uint32_t dat = 0;
    GPT_REG_PROT_UNLOCK();     //
    1024:	e3fffd98 	bsr      	0xb54	// b54 <GPT_REG_PROT_UNLOCK>
    dat=(GPTA0->SYNCR)&(1<<16);
    1028:	116a      	lrw      	r3, 0x20000038	// 10d0 <GPT_INT_DISABLE+0x12>
    102a:	9360      	ld.w      	r3, (r3, 0x0)
    102c:	9304      	ld.w      	r0, (r3, 0x10)
    if (dat)								
    102e:	4810      	lsri      	r0, r0, 16
    1030:	3301      	movi      	r3, 1
	{
	    value = 1;
	} 
    return value;
    1032:	680c      	and      	r0, r3
}
    1034:	1490      	pop      	r15

00001036 <GPT_Period_CMP_Write>:
//GPT Period / Compare set
//EntryParameter:
//ReturnValue:NONE
/*************************************************************/
void GPT_Period_CMP_Write(U16_T PRDR_DATA,U16_T CMPA_DATA,U16_T CMPB_DATA)
{
    1036:	14d3      	push      	r4-r6, r15
    1038:	6d83      	mov      	r6, r0
    103a:	6d47      	mov      	r5, r1
    103c:	6d0b      	mov      	r4, r2
	GPT_REG_PROT_UNLOCK();     //
    103e:	e3fffd8b 	bsr      	0xb54	// b54 <GPT_REG_PROT_UNLOCK>
	GPTA0->PRDR =PRDR_DATA;
    1042:	1164      	lrw      	r3, 0x20000038	// 10d0 <GPT_INT_DISABLE+0x12>
    1044:	9360      	ld.w      	r3, (r3, 0x0)
    1046:	b3c9      	st.w      	r6, (r3, 0x24)
	GPTA0->CMPA =CMPA_DATA;
    1048:	b3ab      	st.w      	r5, (r3, 0x2c)
	GPTA0->CMPB =CMPB_DATA;
    104a:	b38c      	st.w      	r4, (r3, 0x30)
}
    104c:	1493      	pop      	r4-r6, r15

0000104e <GPT_PRDR_Read>:
//GPT read counters
//EntryParameter:
//ReturnValue:NONE
/*************************************************************/
U16_T GPT_PRDR_Read(void)
{
    104e:	14d0      	push      	r15
	GPT_REG_PROT_UNLOCK();     //
    1050:	e3fffd82 	bsr      	0xb54	// b54 <GPT_REG_PROT_UNLOCK>
    return GPTA0->PRDR;
    1054:	107f      	lrw      	r3, 0x20000038	// 10d0 <GPT_INT_DISABLE+0x12>
    1056:	9360      	ld.w      	r3, (r3, 0x0)
    1058:	9309      	ld.w      	r0, (r3, 0x24)
    105a:	7401      	zexth      	r0, r0
}
    105c:	1490      	pop      	r15

0000105e <GPT_CMPA_Read>:
U16_T GPT_CMPA_Read(void)
{
    105e:	14d0      	push      	r15
	GPT_REG_PROT_UNLOCK();     //
    1060:	e3fffd7a 	bsr      	0xb54	// b54 <GPT_REG_PROT_UNLOCK>
    return GPTA0->CMPA;
    1064:	107b      	lrw      	r3, 0x20000038	// 10d0 <GPT_INT_DISABLE+0x12>
    1066:	9360      	ld.w      	r3, (r3, 0x0)
    1068:	930b      	ld.w      	r0, (r3, 0x2c)
    106a:	7401      	zexth      	r0, r0
}
    106c:	1490      	pop      	r15

0000106e <GPT_CMPB_Read>:
U16_T GPT_CMPB_Read(void)
{
    106e:	14d0      	push      	r15
	GPT_REG_PROT_UNLOCK();     //
    1070:	e3fffd72 	bsr      	0xb54	// b54 <GPT_REG_PROT_UNLOCK>
    return GPTA0->CMPB;
    1074:	1077      	lrw      	r3, 0x20000038	// 10d0 <GPT_INT_DISABLE+0x12>
    1076:	9360      	ld.w      	r3, (r3, 0x0)
    1078:	930c      	ld.w      	r0, (r3, 0x30)
    107a:	7401      	zexth      	r0, r0
}
    107c:	1490      	pop      	r15

0000107e <GPT_CNT_Read>:
U16_T GPT_CNT_Read(void)
{
    107e:	14d0      	push      	r15
	GPT_REG_PROT_UNLOCK();     //
    1080:	e3fffd6a 	bsr      	0xb54	// b54 <GPT_REG_PROT_UNLOCK>
    return GPTA0->CNT;
    1084:	1073      	lrw      	r3, 0x20000038	// 10d0 <GPT_INT_DISABLE+0x12>
    1086:	9360      	ld.w      	r3, (r3, 0x0)
    1088:	9310      	ld.w      	r0, (r3, 0x40)
    108a:	7401      	zexth      	r0, r0
}
    108c:	1490      	pop      	r15

0000108e <GPT_ConfigInterrupt_CMD>:
//EntryParameter:LPT_IMSCR_X,NewState
//NewState:ENABLE,DISABLE
//ReturnValue:NONE
/*************************************************************/ 
void GPT_ConfigInterrupt_CMD(FunctionalStatus NewState,U32_T GPT_IMSCR_X)
{
    108e:	14d2      	push      	r4-r5, r15
    1090:	6d43      	mov      	r5, r0
    1092:	6d07      	mov      	r4, r1
	GPT_REG_PROT_UNLOCK();     //
    1094:	e3fffd60 	bsr      	0xb54	// b54 <GPT_REG_PROT_UNLOCK>
    1098:	106e      	lrw      	r3, 0x20000038	// 10d0 <GPT_INT_DISABLE+0x12>
	if (NewState != DISABLE)
    109a:	3d40      	cmpnei      	r5, 0
	{
		GPTA0->IMCR  |= GPT_IMSCR_X;						
    109c:	9360      	ld.w      	r3, (r3, 0x0)
    109e:	237f      	addi      	r3, 128
    10a0:	9356      	ld.w      	r2, (r3, 0x58)
	if (NewState != DISABLE)
    10a2:	0c04      	bf      	0x10aa	// 10aa <GPT_ConfigInterrupt_CMD+0x1c>
		GPTA0->IMCR  |= GPT_IMSCR_X;						
    10a4:	6c90      	or      	r2, r4
    10a6:	b356      	st.w      	r2, (r3, 0x58)
	}
	else
	{
		GPTA0->IMCR  &= ~GPT_IMSCR_X;					
	}
}
    10a8:	1492      	pop      	r4-r5, r15
		GPTA0->IMCR  &= ~GPT_IMSCR_X;					
    10aa:	6891      	andn      	r2, r4
    10ac:	b356      	st.w      	r2, (r3, 0x58)
}
    10ae:	07fd      	br      	0x10a8	// 10a8 <GPT_ConfigInterrupt_CMD+0x1a>

000010b0 <GPT_INT_ENABLE>:
//EntryParameter:NONE
//ReturnValue:NONE
/*************************************************************/
void GPT_INT_ENABLE(void)
{
	INTC_ISER_WRITE(GPT_INT);
    10b0:	1069      	lrw      	r3, 0x20000078	// 10d4 <GPT_INT_DISABLE+0x16>
    10b2:	3280      	movi      	r2, 128
    10b4:	9360      	ld.w      	r3, (r3, 0x0)
    10b6:	23ff      	addi      	r3, 256
    10b8:	4248      	lsli      	r2, r2, 8
    10ba:	b340      	st.w      	r2, (r3, 0x0)
}
    10bc:	783c      	jmp      	r15

000010be <GPT_INT_DISABLE>:
//EntryParameter:NONE
//ReturnValue:NONE
/*************************************************************/
void GPT_INT_DISABLE(void)
{
	INTC_ICER_WRITE(GPT_INT);
    10be:	1066      	lrw      	r3, 0x20000078	// 10d4 <GPT_INT_DISABLE+0x16>
    10c0:	32c0      	movi      	r2, 192
    10c2:	9360      	ld.w      	r3, (r3, 0x0)
    10c4:	4241      	lsli      	r2, r2, 1
    10c6:	60c8      	addu      	r3, r2
    10c8:	3280      	movi      	r2, 128
    10ca:	4248      	lsli      	r2, r2, 8
    10cc:	b340      	st.w      	r2, (r3, 0x0)
}
    10ce:	783c      	jmp      	r15
    10d0:	20000038 	.long	0x20000038
    10d4:	20000078 	.long	0x20000078

000010d8 <BT_DeInit>:
//EntryParameter:NONE
//ReturnValue:NONE
/*************************************************************/    
void BT_DeInit(CSP_BT_T *BTx)
{
	BTx->RSSR=BT_RESET_VALUE;
    10d8:	3300      	movi      	r3, 0
    10da:	b060      	st.w      	r3, (r0, 0x0)
	BTx->CR=BT_RESET_VALUE;
    10dc:	b061      	st.w      	r3, (r0, 0x4)
	BTx->PSCR=BT_RESET_VALUE;
    10de:	b062      	st.w      	r3, (r0, 0x8)
	BTx->PRDR=BT_RESET_VALUE;
    10e0:	b063      	st.w      	r3, (r0, 0xc)
	BTx->CMP=BT_RESET_VALUE;
    10e2:	b064      	st.w      	r3, (r0, 0x10)
	BTx->CNT=BT_RESET_VALUE;
    10e4:	b065      	st.w      	r3, (r0, 0x14)
	BTx->EVTRG=BT_RESET_VALUE;
    10e6:	b066      	st.w      	r3, (r0, 0x18)
	BTx->EVSWF=BT_RESET_VALUE;
    10e8:	b069      	st.w      	r3, (r0, 0x24)
	BTx->RISR=BT_RESET_VALUE;
    10ea:	b06a      	st.w      	r3, (r0, 0x28)
	BTx->IMCR=BT_RESET_VALUE;
    10ec:	b06b      	st.w      	r3, (r0, 0x2c)
	BTx->MISR=BT_RESET_VALUE;
    10ee:	b06c      	st.w      	r3, (r0, 0x30)
	BTx->ICR=BT_RESET_VALUE;
    10f0:	b06d      	st.w      	r3, (r0, 0x34)
}
    10f2:	783c      	jmp      	r15

000010f4 <BT_IO_Init>:
//EntryParameter:LPT_OUT_PA09,LPT_OUT_PB01,LPT_IN_PA10,
//ReturnValue:NONE
/*************************************************************/
void BT_IO_Init(BT_Pin_TypeDef BT_IONAME)
{
	if(BT_IONAME==BT0_PA02)										
    10f4:	3840      	cmpnei      	r0, 0
    10f6:	080b      	bt      	0x110c	// 110c <BT_IO_Init+0x18>
	{
		GPIOA0->CONLR=(GPIOA0->CONLR & 0XFFFFF0FF)|0x00000500;  //BT0 PA0.2
    10f8:	037b      	lrw      	r3, 0x20000014	// 1308 <BT3_INT_DISABLE+0x12>
    10fa:	32f0      	movi      	r2, 240
    10fc:	9320      	ld.w      	r1, (r3, 0x0)
    10fe:	9160      	ld.w      	r3, (r1, 0x0)
    1100:	4244      	lsli      	r2, r2, 4
    1102:	68c9      	andn      	r3, r2
    1104:	3ba8      	bseti      	r3, 8
    1106:	3baa      	bseti      	r3, 10
	{
		GPIOC0->CONLR=(GPIOC0->CONLR & 0XFFFF0FFF)|0x00006000;  //BT1 PC0.3
	}
	if(BT_IONAME==BT2_PB04)										
	{
		GPIOB0->CONLR=(GPIOB0->CONLR & 0XFFF0FFFF)|0x00070000;  //BT2 PB0.4
    1108:	b160      	st.w      	r3, (r1, 0x0)
    110a:	040b      	br      	0x1120	// 1120 <BT_IO_Init+0x2c>
	if(BT_IONAME==BT0_PA08)										
    110c:	3841      	cmpnei      	r0, 1
    110e:	080a      	bt      	0x1122	// 1122 <BT_IO_Init+0x2e>
		GPIOA0->CONHR=(GPIOA0->CONHR & 0XFFFFFFF0)|0x00000005;  //BT0 PA0.8
    1110:	137e      	lrw      	r3, 0x20000014	// 1308 <BT3_INT_DISABLE+0x12>
    1112:	310f      	movi      	r1, 15
    1114:	9340      	ld.w      	r2, (r3, 0x0)
    1116:	9261      	ld.w      	r3, (r2, 0x4)
    1118:	68c5      	andn      	r3, r1
    111a:	3ba0      	bseti      	r3, 0
    111c:	3ba2      	bseti      	r3, 2
		GPIOA0->CONHR=(GPIOA0->CONHR & 0XFFFFFF0F)|0x00000050;  //BT1 PA0.9
    111e:	b261      	st.w      	r3, (r2, 0x4)
	}
	if(BT_IONAME==BT3_PC00)										
	{
		GPIOC0->CONLR=(GPIOC0->CONLR & 0XFFFFFFF0)|0x00000005;  //BT3 PC0.0
	}
}
    1120:	783c      	jmp      	r15
	if(BT_IONAME==BT1_PA09)										
    1122:	3842      	cmpnei      	r0, 2
    1124:	0809      	bt      	0x1136	// 1136 <BT_IO_Init+0x42>
		GPIOA0->CONHR=(GPIOA0->CONHR & 0XFFFFFF0F)|0x00000050;  //BT1 PA0.9
    1126:	1379      	lrw      	r3, 0x20000014	// 1308 <BT3_INT_DISABLE+0x12>
    1128:	31f0      	movi      	r1, 240
    112a:	9340      	ld.w      	r2, (r3, 0x0)
    112c:	9261      	ld.w      	r3, (r2, 0x4)
    112e:	68c5      	andn      	r3, r1
    1130:	3ba4      	bseti      	r3, 4
    1132:	3ba6      	bseti      	r3, 6
    1134:	07f5      	br      	0x111e	// 111e <BT_IO_Init+0x2a>
	if(BT_IONAME==BT1_PC03)										
    1136:	3843      	cmpnei      	r0, 3
    1138:	080a      	bt      	0x114c	// 114c <BT_IO_Init+0x58>
		GPIOC0->CONLR=(GPIOC0->CONLR & 0XFFFF0FFF)|0x00006000;  //BT1 PC0.3
    113a:	1375      	lrw      	r3, 0x20000008	// 130c <BT3_INT_DISABLE+0x16>
    113c:	32f0      	movi      	r2, 240
    113e:	9320      	ld.w      	r1, (r3, 0x0)
    1140:	9160      	ld.w      	r3, (r1, 0x0)
    1142:	4248      	lsli      	r2, r2, 8
    1144:	68c9      	andn      	r3, r2
    1146:	3bad      	bseti      	r3, 13
    1148:	3bae      	bseti      	r3, 14
    114a:	07df      	br      	0x1108	// 1108 <BT_IO_Init+0x14>
	if(BT_IONAME==BT2_PB04)										
    114c:	3844      	cmpnei      	r0, 4
    114e:	080b      	bt      	0x1164	// 1164 <BT_IO_Init+0x70>
		GPIOB0->CONLR=(GPIOB0->CONLR & 0XFFF0FFFF)|0x00070000;  //BT2 PB0.4
    1150:	1370      	lrw      	r3, 0x2000000c	// 1310 <BT3_INT_DISABLE+0x1a>
    1152:	32f0      	movi      	r2, 240
    1154:	9320      	ld.w      	r1, (r3, 0x0)
    1156:	424c      	lsli      	r2, r2, 12
    1158:	9160      	ld.w      	r3, (r1, 0x0)
    115a:	68c9      	andn      	r3, r2
    115c:	32e0      	movi      	r2, 224
    115e:	424b      	lsli      	r2, r2, 11
    1160:	6cc8      	or      	r3, r2
    1162:	07d3      	br      	0x1108	// 1108 <BT_IO_Init+0x14>
	if(BT_IONAME==BT2_PC02)										
    1164:	3845      	cmpnei      	r0, 5
    1166:	080a      	bt      	0x117a	// 117a <BT_IO_Init+0x86>
		GPIOC0->CONLR=(GPIOC0->CONLR & 0XFFFFF0FF)|0x00000700;  //BT2 PC0.2
    1168:	1369      	lrw      	r3, 0x20000008	// 130c <BT3_INT_DISABLE+0x16>
    116a:	32f0      	movi      	r2, 240
    116c:	9320      	ld.w      	r1, (r3, 0x0)
    116e:	4244      	lsli      	r2, r2, 4
    1170:	9160      	ld.w      	r3, (r1, 0x0)
    1172:	68c9      	andn      	r3, r2
    1174:	32e0      	movi      	r2, 224
    1176:	4243      	lsli      	r2, r2, 3
    1178:	07f4      	br      	0x1160	// 1160 <BT_IO_Init+0x6c>
	if(BT_IONAME==BT3_PB07)										
    117a:	3846      	cmpnei      	r0, 6
    117c:	0809      	bt      	0x118e	// 118e <BT_IO_Init+0x9a>
		GPIOB0->CONLR=(GPIOB0->CONLR & 0X0FFFFFFF)|0x70000000;  //BT3 PB0.7
    117e:	1365      	lrw      	r3, 0x2000000c	// 1310 <BT3_INT_DISABLE+0x1a>
    1180:	32e0      	movi      	r2, 224
    1182:	9320      	ld.w      	r1, (r3, 0x0)
    1184:	9160      	ld.w      	r3, (r1, 0x0)
    1186:	4364      	lsli      	r3, r3, 4
    1188:	4b64      	lsri      	r3, r3, 4
    118a:	4257      	lsli      	r2, r2, 23
    118c:	07ea      	br      	0x1160	// 1160 <BT_IO_Init+0x6c>
	if(BT_IONAME==BT3_PC00)										
    118e:	3847      	cmpnei      	r0, 7
    1190:	0bc8      	bt      	0x1120	// 1120 <BT_IO_Init+0x2c>
		GPIOC0->CONLR=(GPIOC0->CONLR & 0XFFFFFFF0)|0x00000005;  //BT3 PC0.0
    1192:	127f      	lrw      	r3, 0x20000008	// 130c <BT3_INT_DISABLE+0x16>
    1194:	310f      	movi      	r1, 15
    1196:	9340      	ld.w      	r2, (r3, 0x0)
    1198:	9260      	ld.w      	r3, (r2, 0x0)
    119a:	68c5      	andn      	r3, r1
    119c:	3ba0      	bseti      	r3, 0
    119e:	3ba2      	bseti      	r3, 2
    11a0:	b260      	st.w      	r3, (r2, 0x0)
}
    11a2:	07bf      	br      	0x1120	// 1120 <BT_IO_Init+0x2c>

000011a4 <BT_Start>:
//EntryParameter:NONE
//ReturnValue:NONE
/*************************************************************/ 
void BT_Start(CSP_BT_T *BTx)
{
	BTx->RSSR |=0X01;
    11a4:	9060      	ld.w      	r3, (r0, 0x0)
    11a6:	3ba0      	bseti      	r3, 0
    11a8:	b060      	st.w      	r3, (r0, 0x0)
}
    11aa:	783c      	jmp      	r15

000011ac <BT_Stop>:
//EntryParameter:NONE
//ReturnValue:NONE
/*************************************************************/ 
void BT_Stop(CSP_BT_T *BTx)
{
	BTx->RSSR &=0X0;
    11ac:	9060      	ld.w      	r3, (r0, 0x0)
    11ae:	3300      	movi      	r3, 0
    11b0:	b060      	st.w      	r3, (r0, 0x0)
}
    11b2:	783c      	jmp      	r15

000011b4 <BT_Stop_High>:
//EntryParameter:NONE
//ReturnValue:NONE
/*************************************************************/ 
void BT_Stop_High(CSP_BT_T *BTx)
{
	BTx->CR |=(0x01<<6);
    11b4:	9061      	ld.w      	r3, (r0, 0x4)
    11b6:	3ba6      	bseti      	r3, 6
    11b8:	b061      	st.w      	r3, (r0, 0x4)
	BTx->RSSR &=0X0;
    11ba:	9060      	ld.w      	r3, (r0, 0x0)
    11bc:	3300      	movi      	r3, 0
    11be:	b060      	st.w      	r3, (r0, 0x0)
}
    11c0:	783c      	jmp      	r15

000011c2 <BT_Stop_Low>:
//EntryParameter:NONE
//ReturnValue:NONE
/*************************************************************/ 
void BT_Stop_Low(CSP_BT_T *BTx)
{
	BTx->CR =BTx->CR & ~(0x01<<6);
    11c2:	9061      	ld.w      	r3, (r0, 0x4)
    11c4:	3b86      	bclri      	r3, 6
    11c6:	b061      	st.w      	r3, (r0, 0x4)
	BTx->RSSR &=0X0;
    11c8:	9060      	ld.w      	r3, (r0, 0x0)
    11ca:	3300      	movi      	r3, 0
    11cc:	b060      	st.w      	r3, (r0, 0x0)
}
    11ce:	783c      	jmp      	r15

000011d0 <BT_Soft_Reset>:
//EntryParameter:NONE
//ReturnValue:NONE
/*************************************************************/ 
void BT_Soft_Reset(CSP_BT_T *BTx)
{
	BTx->RSSR |= (0X5<<12);
    11d0:	9060      	ld.w      	r3, (r0, 0x0)
    11d2:	3bac      	bseti      	r3, 12
    11d4:	3bae      	bseti      	r3, 14
    11d6:	b060      	st.w      	r3, (r0, 0x0)
}
    11d8:	783c      	jmp      	r15

000011da <BT_Configure>:
//BT Configure
//EntryParameter:
//ReturnValue:NONE
/*************************************************************/
void BT_Configure(CSP_BT_T *BTx,BT_CLK_TypeDef BTCLK,U16_T PSCR_DATA,BT_SHDWSTP_TypeDef BTSHDWSTP,BT_OPM_TypeDef BTOPM,BT_EXTCKM_TypeDef BTEXTCKM)
{
    11da:	14c3      	push      	r4-r6
    11dc:	98a4      	ld.w      	r5, (r14, 0x10)
    11de:	6d97      	mov      	r6, r5
    11e0:	9883      	ld.w      	r4, (r14, 0xc)
	BTx->CR |=BTCLK| BTSHDWSTP| BTOPM| BTEXTCKM;
    11e2:	6d18      	or      	r4, r6
    11e4:	6cd0      	or      	r3, r4
    11e6:	90a1      	ld.w      	r5, (r0, 0x4)
    11e8:	6c4c      	or      	r1, r3
    11ea:	6c54      	or      	r1, r5
    11ec:	b021      	st.w      	r1, (r0, 0x4)
	BTx->PSCR = PSCR_DATA;
    11ee:	b042      	st.w      	r2, (r0, 0x8)
}
    11f0:	1483      	pop      	r4-r6

000011f2 <BT_ControlSet_Configure>:
//EntryParameter:
//ReturnValue:NONE
/*************************************************************/
void BT_ControlSet_Configure(CSP_BT_T *BTx,BT_STARTST_TypeDef BTSTART,BT_IDLEST_TypeDef BTIDLE,BT_SYNCEN0_TypeDef BTSYNC0,BT_SYNCEN1_TypeDef BTSYNC1,BT_SYNCEN2_TypeDef BTSYNC2,BT_SYNCMD_TypeDef BTSYNCMD,
							BT_OSTMDX_TypeDef BTOSTMD,BT_AREARM0_TypeDef BTAREARM0,BT_AREARM1_TypeDef BTAREARM1,BT_CNTRLD_TypeDef BTCNTRLD)
{
    11f2:	14c4      	push      	r4-r7
    11f4:	1424      	subi      	r14, r14, 16
    11f6:	9888      	ld.w      	r4, (r14, 0x20)
    11f8:	6dd3      	mov      	r7, r4
    11fa:	9889      	ld.w      	r4, (r14, 0x24)
    11fc:	b880      	st.w      	r4, (r14, 0x0)
    11fe:	988a      	ld.w      	r4, (r14, 0x28)
    1200:	b881      	st.w      	r4, (r14, 0x4)
    1202:	988b      	ld.w      	r4, (r14, 0x2c)
    1204:	b882      	st.w      	r4, (r14, 0x8)
    1206:	988c      	ld.w      	r4, (r14, 0x30)
    1208:	b883      	st.w      	r4, (r14, 0xc)
    120a:	988d      	ld.w      	r4, (r14, 0x34)
    120c:	6d93      	mov      	r6, r4
    120e:	98ae      	ld.w      	r5, (r14, 0x38)
	BTx->CR |=BTSTART| BTIDLE| BTSYNC0| BTSYNC1| BTSYNC2| BTSYNCMD| BTOSTMD| BTAREARM0| BTAREARM1| BTCNTRLD;
    1210:	6d58      	or      	r5, r6
    1212:	98c3      	ld.w      	r6, (r14, 0xc)
    1214:	6d58      	or      	r5, r6
    1216:	98c2      	ld.w      	r6, (r14, 0x8)
    1218:	6d58      	or      	r5, r6
    121a:	98c1      	ld.w      	r6, (r14, 0x4)
    121c:	6d58      	or      	r5, r6
    121e:	98c0      	ld.w      	r6, (r14, 0x0)
    1220:	6d58      	or      	r5, r6
    1222:	6d5c      	or      	r5, r7
    1224:	6cd4      	or      	r3, r5
    1226:	6c8c      	or      	r2, r3
    1228:	9081      	ld.w      	r4, (r0, 0x4)
    122a:	6c48      	or      	r1, r2
    122c:	6d04      	or      	r4, r1
    122e:	6d9f      	mov      	r6, r7
    1230:	b081      	st.w      	r4, (r0, 0x4)
}
    1232:	1404      	addi      	r14, r14, 16
    1234:	1484      	pop      	r4-r7

00001236 <BT_Read_REARM>:
/*************************************************************/
uint8_t BT_Read_REARM(CSP_BT_T *BTx,BT_REARMX_TypeDef REARMX)       //cl
{
	uint8_t value = 0;
    uint32_t dat = 0;
	dat=((BTx)->CR)&(REARMX);
    1236:	9061      	ld.w      	r3, (r0, 0x4)
    1238:	68c4      	and      	r3, r1
    if (dat == (REARMX))								
    123a:	644e      	cmpne      	r3, r1
    123c:	6403      	mvcv      	r0
	{
	    value = 1;
	} 
    return value;
    123e:	7400      	zextb      	r0, r0
}
    1240:	783c      	jmp      	r15

00001242 <BT_Clear_REARM>:
//EntryParameter:
//ReturnValue:NONE
/*************************************************************/
void BT_Clear_REARM(CSP_BT_T *BTx,BT_REARMX_TypeDef REARMX)       //cl
{
     BTx->CR |= REARMX;
    1242:	9061      	ld.w      	r3, (r0, 0x4)
    1244:	6c4c      	or      	r1, r3
    1246:	b021      	st.w      	r1, (r0, 0x4)
}
    1248:	783c      	jmp      	r15

0000124a <BT_Period_CMP_Write>:
//ReturnValue:NONE
/*************************************************************/
void BT_Period_CMP_Write(CSP_BT_T *BTx,U16_T BTPRDR_DATA,U16_T BTCMP_DATA)
{
	//BTx->CR|=0X01<<2;
	BTx->PRDR =BTPRDR_DATA;
    124a:	b023      	st.w      	r1, (r0, 0xc)
	BTx->CMP =BTCMP_DATA;
    124c:	b044      	st.w      	r2, (r0, 0x10)
}
    124e:	783c      	jmp      	r15

00001250 <BT_CNT_Write>:
//EntryParameter:
//ReturnValue:NONE
/*************************************************************/
void BT_CNT_Write(CSP_BT_T *BTx,U16_T BTCNT_DATA)
{
	BTx->CNT =BTCNT_DATA;
    1250:	b025      	st.w      	r1, (r0, 0x14)
}
    1252:	783c      	jmp      	r15

00001254 <BT_PRDR_Read>:
//EntryParameter:
//ReturnValue:NONE
/*************************************************************/
U16_T BT_PRDR_Read(CSP_BT_T *BTx)
{
    return BTx->PRDR;
    1254:	9003      	ld.w      	r0, (r0, 0xc)
    1256:	7401      	zexth      	r0, r0
}
    1258:	783c      	jmp      	r15

0000125a <BT_CMP_Read>:
U16_T BT_CMP_Read(CSP_BT_T *BTx)
{
    return BTx->CMP;
    125a:	9004      	ld.w      	r0, (r0, 0x10)
    125c:	7401      	zexth      	r0, r0
}
    125e:	783c      	jmp      	r15

00001260 <BT_CNT_Read>:
U16_T BT_CNT_Read(CSP_BT_T *BTx)
{
    return BTx->CNT;
    1260:	9005      	ld.w      	r0, (r0, 0x14)
    1262:	7401      	zexth      	r0, r0
}
    1264:	783c      	jmp      	r15

00001266 <BT_Trigger_Configure>:
//EntryParameter:
//ReturnValue:NONE
/*************************************************************/
void BT_Trigger_Configure(CSP_BT_T *BTx,BT_TRGSRC_TypeDef BTTRG,BT_TRGOE_TypeDef BTTRGOE)
{
	BTx->EVTRG|=BTTRG| BTTRGOE;
    1266:	9066      	ld.w      	r3, (r0, 0x18)
    1268:	6c48      	or      	r1, r2
    126a:	6c4c      	or      	r1, r3
    126c:	b026      	st.w      	r1, (r0, 0x18)
}
    126e:	783c      	jmp      	r15

00001270 <BT_Soft_Tigger>:
//EntryParameter:
//ReturnValue:NONE
/*************************************************************/
void BT_Soft_Tigger(CSP_BT_T *BTx)
{
	BTx->EVSWF=0x01;
    1270:	3301      	movi      	r3, 1
    1272:	b069      	st.w      	r3, (r0, 0x24)
}
    1274:	783c      	jmp      	r15

00001276 <BT_ConfigInterrupt_CMD>:
//NewState:ENABLE,DISABLE
//ReturnValue:NONE
/*************************************************************/ 
void BT_ConfigInterrupt_CMD(CSP_BT_T *BTx,FunctionalStatus NewState,BT_IMSCR_TypeDef BT_IMSCR_X)
{
	if (NewState != DISABLE)
    1276:	3940      	cmpnei      	r1, 0
	{
		BTx->IMCR  |= BT_IMSCR_X;						
    1278:	906b      	ld.w      	r3, (r0, 0x2c)
	if (NewState != DISABLE)
    127a:	0c04      	bf      	0x1282	// 1282 <BT_ConfigInterrupt_CMD+0xc>
		BTx->IMCR  |= BT_IMSCR_X;						
    127c:	6c8c      	or      	r2, r3
    127e:	b04b      	st.w      	r2, (r0, 0x2c)
	}
	else
	{
		BTx->IMCR  &= ~BT_IMSCR_X;					
	}
}
    1280:	783c      	jmp      	r15
		BTx->IMCR  &= ~BT_IMSCR_X;					
    1282:	68c9      	andn      	r3, r2
    1284:	b06b      	st.w      	r3, (r0, 0x2c)
}
    1286:	07fd      	br      	0x1280	// 1280 <BT_ConfigInterrupt_CMD+0xa>

00001288 <BT0_INT_ENABLE>:
//EntryParameter:NONE
//ReturnValue:NONE
/*************************************************************/
void BT0_INT_ENABLE(void)
{
	INTC_ISER_WRITE(BT0_INT);
    1288:	1163      	lrw      	r3, 0x20000078	// 1314 <BT3_INT_DISABLE+0x1e>
    128a:	3280      	movi      	r2, 128
    128c:	9360      	ld.w      	r3, (r3, 0x0)
    128e:	23ff      	addi      	r3, 256
    1290:	4249      	lsli      	r2, r2, 9
    1292:	b340      	st.w      	r2, (r3, 0x0)
}
    1294:	783c      	jmp      	r15

00001296 <BT0_INT_DISABLE>:
//EntryParameter:NONE
//ReturnValue:NONE
/*************************************************************/
void BT0_INT_DISABLE(void)
{
	INTC_ICER_WRITE(BT0_INT);
    1296:	1160      	lrw      	r3, 0x20000078	// 1314 <BT3_INT_DISABLE+0x1e>
    1298:	32c0      	movi      	r2, 192
    129a:	9360      	ld.w      	r3, (r3, 0x0)
    129c:	4241      	lsli      	r2, r2, 1
    129e:	60c8      	addu      	r3, r2
    12a0:	3280      	movi      	r2, 128
    12a2:	4249      	lsli      	r2, r2, 9
    12a4:	b340      	st.w      	r2, (r3, 0x0)
}
    12a6:	783c      	jmp      	r15

000012a8 <BT1_INT_ENABLE>:
//EntryParameter:NONE
//ReturnValue:NONE
/*************************************************************/
void BT1_INT_ENABLE(void)
{
	INTC_ISER_WRITE(BT1_INT);
    12a8:	107b      	lrw      	r3, 0x20000078	// 1314 <BT3_INT_DISABLE+0x1e>
    12aa:	3280      	movi      	r2, 128
    12ac:	9360      	ld.w      	r3, (r3, 0x0)
    12ae:	23ff      	addi      	r3, 256
    12b0:	424a      	lsli      	r2, r2, 10
    12b2:	b340      	st.w      	r2, (r3, 0x0)
}
    12b4:	783c      	jmp      	r15

000012b6 <BT1_INT_DISABLE>:
//EntryParameter:NONE
//ReturnValue:NONE
/*************************************************************/
void BT1_INT_DISABLE(void)
{
	INTC_ICER_WRITE(BT1_INT);
    12b6:	1078      	lrw      	r3, 0x20000078	// 1314 <BT3_INT_DISABLE+0x1e>
    12b8:	32c0      	movi      	r2, 192
    12ba:	9360      	ld.w      	r3, (r3, 0x0)
    12bc:	4241      	lsli      	r2, r2, 1
    12be:	60c8      	addu      	r3, r2
    12c0:	3280      	movi      	r2, 128
    12c2:	424a      	lsli      	r2, r2, 10
    12c4:	b340      	st.w      	r2, (r3, 0x0)
}
    12c6:	783c      	jmp      	r15

000012c8 <BT2_INT_ENABLE>:
//EntryParameter:NONE
//ReturnValue:NONE
/*************************************************************/
void BT2_INT_ENABLE(void)
{
	INTC_ISER_WRITE(BT2_INT);
    12c8:	1073      	lrw      	r3, 0x20000078	// 1314 <BT3_INT_DISABLE+0x1e>
    12ca:	3280      	movi      	r2, 128
    12cc:	9360      	ld.w      	r3, (r3, 0x0)
    12ce:	23ff      	addi      	r3, 256
    12d0:	424b      	lsli      	r2, r2, 11
    12d2:	b340      	st.w      	r2, (r3, 0x0)
}
    12d4:	783c      	jmp      	r15

000012d6 <BT2_INT_DISABLE>:
//EntryParameter:NONE
//ReturnValue:NONE
/*************************************************************/
void BT2_INT_DISABLE(void)
{
	INTC_ICER_WRITE(BT2_INT);
    12d6:	1070      	lrw      	r3, 0x20000078	// 1314 <BT3_INT_DISABLE+0x1e>
    12d8:	32c0      	movi      	r2, 192
    12da:	9360      	ld.w      	r3, (r3, 0x0)
    12dc:	4241      	lsli      	r2, r2, 1
    12de:	60c8      	addu      	r3, r2
    12e0:	3280      	movi      	r2, 128
    12e2:	424b      	lsli      	r2, r2, 11
    12e4:	b340      	st.w      	r2, (r3, 0x0)
}
    12e6:	783c      	jmp      	r15

000012e8 <BT3_INT_ENABLE>:
//EntryParameter:NONE
//ReturnValue:NONE
/*************************************************************/
void BT3_INT_ENABLE(void)
{
	INTC_ISER_WRITE(BT3_INT);
    12e8:	106b      	lrw      	r3, 0x20000078	// 1314 <BT3_INT_DISABLE+0x1e>
    12ea:	3280      	movi      	r2, 128
    12ec:	9360      	ld.w      	r3, (r3, 0x0)
    12ee:	23ff      	addi      	r3, 256
    12f0:	424c      	lsli      	r2, r2, 12
    12f2:	b340      	st.w      	r2, (r3, 0x0)
}
    12f4:	783c      	jmp      	r15

000012f6 <BT3_INT_DISABLE>:
//EntryParameter:NONE
//ReturnValue:NONE
/*************************************************************/
void BT3_INT_DISABLE(void)
{
	INTC_ICER_WRITE(BT3_INT);
    12f6:	1068      	lrw      	r3, 0x20000078	// 1314 <BT3_INT_DISABLE+0x1e>
    12f8:	32c0      	movi      	r2, 192
    12fa:	9360      	ld.w      	r3, (r3, 0x0)
    12fc:	4241      	lsli      	r2, r2, 1
    12fe:	60c8      	addu      	r3, r2
    1300:	3280      	movi      	r2, 128
    1302:	424c      	lsli      	r2, r2, 12
    1304:	b340      	st.w      	r2, (r3, 0x0)
}
    1306:	783c      	jmp      	r15
    1308:	20000014 	.long	0x20000014
    130c:	20000008 	.long	0x20000008
    1310:	2000000c 	.long	0x2000000c
    1314:	20000078 	.long	0x20000078

00001318 <ET_DeInit>:
//ET RESET CLEAR ALL REGISTER
//EntryParameter:NONE
//ReturnValue:NONE
/*************************************************************/  
void ET_DeInit(void)
{
    1318:	14c1      	push      	r4
	int i=0;
	ETCB->EN 			= ET_RESET_VALUE;
    131a:	106c      	lrw      	r3, 0x2000006c	// 1348 <ET_DeInit+0x30>
    131c:	3200      	movi      	r2, 0
    131e:	9360      	ld.w      	r3, (r3, 0x0)
    1320:	b340      	st.w      	r2, (r3, 0x0)
	ETCB->CH0CON1	  	= ET_RESET_VALUE;
	ETCB->CH1CON0 		= ET_RESET_VALUE;
	ETCB->CH1CON1 		= ET_RESET_VALUE;
	ETCB->CH2CON0 		= ET_RESET_VALUE;
	ETCB->CH2CON1 		= ET_RESET_VALUE;
	for(i=0;i<29;i++)
    1322:	3100      	movi      	r1, 0
	ETCB->SWTRG 		= ET_RESET_VALUE;
    1324:	b341      	st.w      	r2, (r3, 0x4)
	{
	    ETCB->CH3_31CON[i] = ET_RESET_VALUE;
    1326:	340c      	movi      	r4, 12
	ETCB->CH0CON0 		= ET_RESET_VALUE;
    1328:	b342      	st.w      	r2, (r3, 0x8)
	    ETCB->CH3_31CON[i] = ET_RESET_VALUE;
    132a:	3000      	movi      	r0, 0
	ETCB->CH0CON1	  	= ET_RESET_VALUE;
    132c:	b343      	st.w      	r2, (r3, 0xc)
	ETCB->CH1CON0 		= ET_RESET_VALUE;
    132e:	b344      	st.w      	r2, (r3, 0x10)
	ETCB->CH1CON1 		= ET_RESET_VALUE;
    1330:	b345      	st.w      	r2, (r3, 0x14)
	ETCB->CH2CON0 		= ET_RESET_VALUE;
    1332:	b346      	st.w      	r2, (r3, 0x18)
	ETCB->CH2CON1 		= ET_RESET_VALUE;
    1334:	b347      	st.w      	r2, (r3, 0x1c)
	    ETCB->CH3_31CON[i] = ET_RESET_VALUE;
    1336:	5950      	addu      	r2, r1, r4
    1338:	4242      	lsli      	r2, r2, 2
	for(i=0;i<29;i++)
    133a:	2100      	addi      	r1, 1
	    ETCB->CH3_31CON[i] = ET_RESET_VALUE;
    133c:	608c      	addu      	r2, r3
	for(i=0;i<29;i++)
    133e:	395d      	cmpnei      	r1, 29
	    ETCB->CH3_31CON[i] = ET_RESET_VALUE;
    1340:	b200      	st.w      	r0, (r2, 0x0)
	for(i=0;i<29;i++)
    1342:	0bfa      	bt      	0x1336	// 1336 <ET_DeInit+0x1e>
	}
}
    1344:	1481      	pop      	r4
    1346:	0000      	bkpt
    1348:	2000006c 	.long	0x2000006c

0000134c <ET_ENABLE>:
//EntryParameter:NONE
//ReturnValue:NONE
/*************************************************************/ 
void ET_ENABLE(void)
{
	ETCB->EN	=	0x01;
    134c:	137e      	lrw      	r3, 0x2000006c	// 1544 <ET_CHx_CONTROL+0x2c>
    134e:	3201      	movi      	r2, 1
    1350:	9360      	ld.w      	r3, (r3, 0x0)
    1352:	b340      	st.w      	r2, (r3, 0x0)
}
    1354:	783c      	jmp      	r15

00001356 <ET_DISABLE>:
//EntryParameter:NONE
//ReturnValue:NONE
/*************************************************************/ 
void ET_DISABLE(void)
{
	ETCB->EN	=	0x00;
    1356:	137c      	lrw      	r3, 0x2000006c	// 1544 <ET_CHx_CONTROL+0x2c>
    1358:	3200      	movi      	r2, 0
    135a:	9360      	ld.w      	r3, (r3, 0x0)
    135c:	b340      	st.w      	r2, (r3, 0x0)
}
    135e:	783c      	jmp      	r15

00001360 <ET_SWTRG_CMD>:
//NewState:ENABLE,DISABLE
//ReturnValue:NONE
/*************************************************************/ 
void ET_SWTRG_CMD(CRC_ETSWTRG_TypeDef ETSWTRG_X,FunctionalStatus NewState)
{
	if (NewState != DISABLE)
    1360:	3940      	cmpnei      	r1, 0
    1362:	1379      	lrw      	r3, 0x2000006c	// 1544 <ET_CHx_CONTROL+0x2c>
    1364:	0c06      	bf      	0x1370	// 1370 <ET_SWTRG_CMD+0x10>
	{
		ETCB->SWTRG  |= ETSWTRG_X;						
    1366:	9360      	ld.w      	r3, (r3, 0x0)
    1368:	9341      	ld.w      	r2, (r3, 0x4)
    136a:	6c08      	or      	r0, r2
    136c:	b301      	st.w      	r0, (r3, 0x4)
	}
	else
	{
		ETCB->SWTRG  &= ~ETSWTRG_X;					
	}
}
    136e:	783c      	jmp      	r15
		ETCB->SWTRG  &= ~ETSWTRG_X;					
    1370:	9340      	ld.w      	r2, (r3, 0x0)
    1372:	9261      	ld.w      	r3, (r2, 0x4)
    1374:	68c1      	andn      	r3, r0
    1376:	b261      	st.w      	r3, (r2, 0x4)
}
    1378:	07fb      	br      	0x136e	// 136e <ET_SWTRG_CMD+0xe>

0000137a <ET_CH0_DSTSEL>:
//NewState:ENABLE,DISABLE
//ReturnValue:NONE
/*************************************************************/ 
void ET_CH0_DSTSEL(CRC_DSTSEL_TypeDef DST_X,FunctionalStatus NewState,U8_T DSTSEL_X)
{
	if (NewState != DISABLE)
    137a:	3940      	cmpnei      	r1, 0
    137c:	0c1b      	bf      	0x13b2	// 13b2 <ET_CH0_DSTSEL+0x38>
	{
		if(DST_X==0)
    137e:	3840      	cmpnei      	r0, 0
    1380:	0809      	bt      	0x1392	// 1392 <ET_CH0_DSTSEL+0x18>
		{
			ETCB->CH0CON0  |= 0X01| (DSTSEL_X<<1);
    1382:	1371      	lrw      	r3, 0x2000006c	// 1544 <ET_CHx_CONTROL+0x2c>
    1384:	4241      	lsli      	r2, r2, 1
    1386:	9320      	ld.w      	r1, (r3, 0x0)
    1388:	9162      	ld.w      	r3, (r1, 0x8)
    138a:	3ba0      	bseti      	r3, 0
		}
		if(DST_X==1)
		{
			ETCB->CH0CON0  |= (0X01<<10)| (DSTSEL_X<<11);
    138c:	6c8c      	or      	r2, r3
    138e:	b142      	st.w      	r2, (r1, 0x8)
		if(DST_X==2)
		{
			ETCB->CH0CON0  &= (0X00<<20)| (DSTSEL_X<<21);
		}				
	}
}
    1390:	783c      	jmp      	r15
		if(DST_X==1)
    1392:	3841      	cmpnei      	r0, 1
    1394:	0807      	bt      	0x13a2	// 13a2 <ET_CH0_DSTSEL+0x28>
			ETCB->CH0CON0  |= (0X01<<10)| (DSTSEL_X<<11);
    1396:	136c      	lrw      	r3, 0x2000006c	// 1544 <ET_CHx_CONTROL+0x2c>
    1398:	424b      	lsli      	r2, r2, 11
    139a:	9320      	ld.w      	r1, (r3, 0x0)
    139c:	9162      	ld.w      	r3, (r1, 0x8)
    139e:	3baa      	bseti      	r3, 10
    13a0:	07f6      	br      	0x138c	// 138c <ET_CH0_DSTSEL+0x12>
		if(DST_X==2)
    13a2:	3842      	cmpnei      	r0, 2
    13a4:	0bf6      	bt      	0x1390	// 1390 <ET_CH0_DSTSEL+0x16>
			ETCB->CH0CON0  |= (0X01<<20)| (DSTSEL_X<<21);
    13a6:	1368      	lrw      	r3, 0x2000006c	// 1544 <ET_CHx_CONTROL+0x2c>
    13a8:	4255      	lsli      	r2, r2, 21
    13aa:	9320      	ld.w      	r1, (r3, 0x0)
    13ac:	9162      	ld.w      	r3, (r1, 0x8)
    13ae:	3bb4      	bseti      	r3, 20
    13b0:	07ee      	br      	0x138c	// 138c <ET_CH0_DSTSEL+0x12>
		if(DST_X==0)
    13b2:	3840      	cmpnei      	r0, 0
    13b4:	0809      	bt      	0x13c6	// 13c6 <ET_CH0_DSTSEL+0x4c>
			ETCB->CH0CON0  &= 0X01| (DSTSEL_X<<1);
    13b6:	1364      	lrw      	r3, 0x2000006c	// 1544 <ET_CHx_CONTROL+0x2c>
    13b8:	4241      	lsli      	r2, r2, 1
    13ba:	9360      	ld.w      	r3, (r3, 0x0)
    13bc:	9322      	ld.w      	r1, (r3, 0x8)
    13be:	3aa0      	bseti      	r2, 0
			ETCB->CH0CON0  &= (0X00<<20)| (DSTSEL_X<<21);
    13c0:	6884      	and      	r2, r1
    13c2:	b342      	st.w      	r2, (r3, 0x8)
}
    13c4:	07e6      	br      	0x1390	// 1390 <ET_CH0_DSTSEL+0x16>
		if(DST_X==1)
    13c6:	3841      	cmpnei      	r0, 1
    13c8:	0806      	bt      	0x13d4	// 13d4 <ET_CH0_DSTSEL+0x5a>
			ETCB->CH0CON0  &= (0X00<<10)| (DSTSEL_X<<11);
    13ca:	127f      	lrw      	r3, 0x2000006c	// 1544 <ET_CHx_CONTROL+0x2c>
    13cc:	424b      	lsli      	r2, r2, 11
    13ce:	9360      	ld.w      	r3, (r3, 0x0)
    13d0:	9322      	ld.w      	r1, (r3, 0x8)
    13d2:	07f7      	br      	0x13c0	// 13c0 <ET_CH0_DSTSEL+0x46>
		if(DST_X==2)
    13d4:	3842      	cmpnei      	r0, 2
    13d6:	0bdd      	bt      	0x1390	// 1390 <ET_CH0_DSTSEL+0x16>
			ETCB->CH0CON0  &= (0X00<<20)| (DSTSEL_X<<21);
    13d8:	127b      	lrw      	r3, 0x2000006c	// 1544 <ET_CHx_CONTROL+0x2c>
    13da:	4255      	lsli      	r2, r2, 21
    13dc:	9360      	ld.w      	r3, (r3, 0x0)
    13de:	9322      	ld.w      	r1, (r3, 0x8)
    13e0:	07f0      	br      	0x13c0	// 13c0 <ET_CH0_DSTSEL+0x46>

000013e2 <ET_CH0_SRCSEL>:
//NewState:ENABLE,DISABLE
//ReturnValue:NONE
/*************************************************************/ 
void ET_CH0_SRCSEL(FunctionalStatus NewState,CRC_TRIGMODE_TypeDef TRIGMODEX,U8_T SRCSEL_X)
{
	if (NewState != DISABLE)
    13e2:	3840      	cmpnei      	r0, 0
    13e4:	1278      	lrw      	r3, 0x2000006c	// 1544 <ET_CHx_CONTROL+0x2c>
    13e6:	4259      	lsli      	r2, r2, 25
    13e8:	0c08      	bf      	0x13f8	// 13f8 <ET_CH0_SRCSEL+0x16>
	{
		ETCB->CH0CON1  |= 0x01| (SRCSEL_X<<25)| TRIGMODEX;          //cl
    13ea:	9300      	ld.w      	r0, (r3, 0x0)
    13ec:	9063      	ld.w      	r3, (r0, 0xc)
    13ee:	3ba0      	bseti      	r3, 0
    13f0:	6c4c      	or      	r1, r3
    13f2:	6c84      	or      	r2, r1
    13f4:	b043      	st.w      	r2, (r0, 0xc)
	else
	{
		ETCB->CH0CON1  &= 0x00| (SRCSEL_X<<25)| TRIGMODEX;
	}
	
}
    13f6:	783c      	jmp      	r15
		ETCB->CH0CON1  &= 0x00| (SRCSEL_X<<25)| TRIGMODEX;
    13f8:	9360      	ld.w      	r3, (r3, 0x0)
    13fa:	9303      	ld.w      	r0, (r3, 0xc)
    13fc:	6c84      	or      	r2, r1
    13fe:	6880      	and      	r2, r0
    1400:	b343      	st.w      	r2, (r3, 0xc)
}
    1402:	07fa      	br      	0x13f6	// 13f6 <ET_CH0_SRCSEL+0x14>

00001404 <ET_CH1_DSTSEL>:
//NewState:ENABLE,DISABLE
//ReturnValue:NONE
/*************************************************************/ 
void ET_CH1_DSTSEL(CRC_DSTSEL_TypeDef DST_X,FunctionalStatus NewState,U8_T DSTSEL_X)
{
	if (NewState != DISABLE)
    1404:	3940      	cmpnei      	r1, 0
    1406:	0c1b      	bf      	0x143c	// 143c <ET_CH1_DSTSEL+0x38>
	{
		if(DST_X==0)
    1408:	3840      	cmpnei      	r0, 0
    140a:	0809      	bt      	0x141c	// 141c <ET_CH1_DSTSEL+0x18>
		{
			ETCB->CH1CON0  |= 0X01| (DSTSEL_X<<1);
    140c:	126e      	lrw      	r3, 0x2000006c	// 1544 <ET_CHx_CONTROL+0x2c>
    140e:	4241      	lsli      	r2, r2, 1
    1410:	9320      	ld.w      	r1, (r3, 0x0)
    1412:	9164      	ld.w      	r3, (r1, 0x10)
    1414:	3ba0      	bseti      	r3, 0
		}
		if(DST_X==1)
		{
			ETCB->CH1CON0  |= (0X01<<10)| (DSTSEL_X<<11);
    1416:	6c8c      	or      	r2, r3
    1418:	b144      	st.w      	r2, (r1, 0x10)
		if(DST_X==2)
		{
			ETCB->CH1CON0  &= (0X00<<20)| (DSTSEL_X<<21);
		}				
	}
}
    141a:	783c      	jmp      	r15
		if(DST_X==1)
    141c:	3841      	cmpnei      	r0, 1
    141e:	0807      	bt      	0x142c	// 142c <ET_CH1_DSTSEL+0x28>
			ETCB->CH1CON0  |= (0X01<<10)| (DSTSEL_X<<11);
    1420:	1269      	lrw      	r3, 0x2000006c	// 1544 <ET_CHx_CONTROL+0x2c>
    1422:	424b      	lsli      	r2, r2, 11
    1424:	9320      	ld.w      	r1, (r3, 0x0)
    1426:	9164      	ld.w      	r3, (r1, 0x10)
    1428:	3baa      	bseti      	r3, 10
    142a:	07f6      	br      	0x1416	// 1416 <ET_CH1_DSTSEL+0x12>
		if(DST_X==2)
    142c:	3842      	cmpnei      	r0, 2
    142e:	0bf6      	bt      	0x141a	// 141a <ET_CH1_DSTSEL+0x16>
			ETCB->CH1CON0  |= (0X01<<20)| (DSTSEL_X<<21);
    1430:	1265      	lrw      	r3, 0x2000006c	// 1544 <ET_CHx_CONTROL+0x2c>
    1432:	4255      	lsli      	r2, r2, 21
    1434:	9320      	ld.w      	r1, (r3, 0x0)
    1436:	9164      	ld.w      	r3, (r1, 0x10)
    1438:	3bb4      	bseti      	r3, 20
    143a:	07ee      	br      	0x1416	// 1416 <ET_CH1_DSTSEL+0x12>
		if(DST_X==0)
    143c:	3840      	cmpnei      	r0, 0
    143e:	0809      	bt      	0x1450	// 1450 <ET_CH1_DSTSEL+0x4c>
			ETCB->CH1CON0  &= 0X01| (DSTSEL_X<<1);
    1440:	1261      	lrw      	r3, 0x2000006c	// 1544 <ET_CHx_CONTROL+0x2c>
    1442:	4241      	lsli      	r2, r2, 1
    1444:	9360      	ld.w      	r3, (r3, 0x0)
    1446:	9324      	ld.w      	r1, (r3, 0x10)
    1448:	3aa0      	bseti      	r2, 0
			ETCB->CH1CON0  &= (0X00<<20)| (DSTSEL_X<<21);
    144a:	6884      	and      	r2, r1
    144c:	b344      	st.w      	r2, (r3, 0x10)
}
    144e:	07e6      	br      	0x141a	// 141a <ET_CH1_DSTSEL+0x16>
		if(DST_X==1)
    1450:	3841      	cmpnei      	r0, 1
    1452:	0806      	bt      	0x145e	// 145e <ET_CH1_DSTSEL+0x5a>
			ETCB->CH1CON0  &= (0X00<<10)| (DSTSEL_X<<11);
    1454:	117c      	lrw      	r3, 0x2000006c	// 1544 <ET_CHx_CONTROL+0x2c>
    1456:	424b      	lsli      	r2, r2, 11
    1458:	9360      	ld.w      	r3, (r3, 0x0)
    145a:	9324      	ld.w      	r1, (r3, 0x10)
    145c:	07f7      	br      	0x144a	// 144a <ET_CH1_DSTSEL+0x46>
		if(DST_X==2)
    145e:	3842      	cmpnei      	r0, 2
    1460:	0bdd      	bt      	0x141a	// 141a <ET_CH1_DSTSEL+0x16>
			ETCB->CH1CON0  &= (0X00<<20)| (DSTSEL_X<<21);
    1462:	1179      	lrw      	r3, 0x2000006c	// 1544 <ET_CHx_CONTROL+0x2c>
    1464:	4255      	lsli      	r2, r2, 21
    1466:	9360      	ld.w      	r3, (r3, 0x0)
    1468:	9324      	ld.w      	r1, (r3, 0x10)
    146a:	07f0      	br      	0x144a	// 144a <ET_CH1_DSTSEL+0x46>

0000146c <ET_CH1_SRCSEL>:
//NewState:ENABLE,DISABLE
//ReturnValue:NONE
/*************************************************************/ 
void ET_CH1_SRCSEL(FunctionalStatus NewState,CRC_TRIGMODE_TypeDef TRIGMODEX,U8_T SRCSEL_X)
{
	if (NewState != DISABLE)
    146c:	3840      	cmpnei      	r0, 0
    146e:	1176      	lrw      	r3, 0x2000006c	// 1544 <ET_CHx_CONTROL+0x2c>
    1470:	4259      	lsli      	r2, r2, 25
    1472:	0c08      	bf      	0x1482	// 1482 <ET_CH1_SRCSEL+0x16>
	{
		ETCB->CH1CON1  |= 0x01| (SRCSEL_X<<25)| TRIGMODEX;          //cl
    1474:	9300      	ld.w      	r0, (r3, 0x0)
    1476:	9065      	ld.w      	r3, (r0, 0x14)
    1478:	3ba0      	bseti      	r3, 0
    147a:	6c4c      	or      	r1, r3
    147c:	6c84      	or      	r2, r1
    147e:	b045      	st.w      	r2, (r0, 0x14)
	else
	{
		ETCB->CH1CON1  &= 0x00| (SRCSEL_X<<25)| TRIGMODEX;
	}
	
}
    1480:	783c      	jmp      	r15
		ETCB->CH1CON1  &= 0x00| (SRCSEL_X<<25)| TRIGMODEX;
    1482:	9360      	ld.w      	r3, (r3, 0x0)
    1484:	9305      	ld.w      	r0, (r3, 0x14)
    1486:	6c84      	or      	r2, r1
    1488:	6880      	and      	r2, r0
    148a:	b345      	st.w      	r2, (r3, 0x14)
}
    148c:	07fa      	br      	0x1480	// 1480 <ET_CH1_SRCSEL+0x14>

0000148e <ET_CH2_DSTSEL>:
//NewState:ENABLE,DISABLE
//ReturnValue:NONE
/*************************************************************/ 
void ET_CH2_DSTSEL(CRC_DSTSEL_TypeDef DST_X,FunctionalStatus NewState,U8_T DSTSEL_X)
{
	if (NewState != DISABLE)
    148e:	3940      	cmpnei      	r1, 0
    1490:	0c1b      	bf      	0x14c6	// 14c6 <ET_CH2_DSTSEL+0x38>
	{
		if(DST_X==0)
    1492:	3840      	cmpnei      	r0, 0
    1494:	0809      	bt      	0x14a6	// 14a6 <ET_CH2_DSTSEL+0x18>
		{
			ETCB->CH2CON0  |= 0X01| (DSTSEL_X<<1);
    1496:	116c      	lrw      	r3, 0x2000006c	// 1544 <ET_CHx_CONTROL+0x2c>
    1498:	4241      	lsli      	r2, r2, 1
    149a:	9320      	ld.w      	r1, (r3, 0x0)
    149c:	9166      	ld.w      	r3, (r1, 0x18)
    149e:	3ba0      	bseti      	r3, 0
		}
		if(DST_X==1)
		{
			ETCB->CH2CON0  |= (0X01<<10)| (DSTSEL_X<<11);
    14a0:	6c8c      	or      	r2, r3
    14a2:	b146      	st.w      	r2, (r1, 0x18)
		if(DST_X==2)
		{
			ETCB->CH2CON0  &= (0X00<<20)| (DSTSEL_X<<21);
		}				
	}
}
    14a4:	783c      	jmp      	r15
		if(DST_X==1)
    14a6:	3841      	cmpnei      	r0, 1
    14a8:	0807      	bt      	0x14b6	// 14b6 <ET_CH2_DSTSEL+0x28>
			ETCB->CH2CON0  |= (0X01<<10)| (DSTSEL_X<<11);
    14aa:	1167      	lrw      	r3, 0x2000006c	// 1544 <ET_CHx_CONTROL+0x2c>
    14ac:	424b      	lsli      	r2, r2, 11
    14ae:	9320      	ld.w      	r1, (r3, 0x0)
    14b0:	9166      	ld.w      	r3, (r1, 0x18)
    14b2:	3baa      	bseti      	r3, 10
    14b4:	07f6      	br      	0x14a0	// 14a0 <ET_CH2_DSTSEL+0x12>
		if(DST_X==2)
    14b6:	3842      	cmpnei      	r0, 2
    14b8:	0bf6      	bt      	0x14a4	// 14a4 <ET_CH2_DSTSEL+0x16>
			ETCB->CH2CON0  |= (0X01<<20)| (DSTSEL_X<<21);
    14ba:	1163      	lrw      	r3, 0x2000006c	// 1544 <ET_CHx_CONTROL+0x2c>
    14bc:	4255      	lsli      	r2, r2, 21
    14be:	9320      	ld.w      	r1, (r3, 0x0)
    14c0:	9166      	ld.w      	r3, (r1, 0x18)
    14c2:	3bb4      	bseti      	r3, 20
    14c4:	07ee      	br      	0x14a0	// 14a0 <ET_CH2_DSTSEL+0x12>
		if(DST_X==0)
    14c6:	3840      	cmpnei      	r0, 0
    14c8:	0809      	bt      	0x14da	// 14da <ET_CH2_DSTSEL+0x4c>
			ETCB->CH2CON0  &= 0X01| (DSTSEL_X<<1);
    14ca:	107f      	lrw      	r3, 0x2000006c	// 1544 <ET_CHx_CONTROL+0x2c>
    14cc:	4241      	lsli      	r2, r2, 1
    14ce:	9360      	ld.w      	r3, (r3, 0x0)
    14d0:	9326      	ld.w      	r1, (r3, 0x18)
    14d2:	3aa0      	bseti      	r2, 0
			ETCB->CH2CON0  &= (0X00<<20)| (DSTSEL_X<<21);
    14d4:	6884      	and      	r2, r1
    14d6:	b346      	st.w      	r2, (r3, 0x18)
}
    14d8:	07e6      	br      	0x14a4	// 14a4 <ET_CH2_DSTSEL+0x16>
		if(DST_X==1)
    14da:	3841      	cmpnei      	r0, 1
    14dc:	0806      	bt      	0x14e8	// 14e8 <ET_CH2_DSTSEL+0x5a>
			ETCB->CH2CON0  &= (0X00<<10)| (DSTSEL_X<<11);
    14de:	107a      	lrw      	r3, 0x2000006c	// 1544 <ET_CHx_CONTROL+0x2c>
    14e0:	424b      	lsli      	r2, r2, 11
    14e2:	9360      	ld.w      	r3, (r3, 0x0)
    14e4:	9326      	ld.w      	r1, (r3, 0x18)
    14e6:	07f7      	br      	0x14d4	// 14d4 <ET_CH2_DSTSEL+0x46>
		if(DST_X==2)
    14e8:	3842      	cmpnei      	r0, 2
    14ea:	0bdd      	bt      	0x14a4	// 14a4 <ET_CH2_DSTSEL+0x16>
			ETCB->CH2CON0  &= (0X00<<20)| (DSTSEL_X<<21);
    14ec:	1076      	lrw      	r3, 0x2000006c	// 1544 <ET_CHx_CONTROL+0x2c>
    14ee:	4255      	lsli      	r2, r2, 21
    14f0:	9360      	ld.w      	r3, (r3, 0x0)
    14f2:	9326      	ld.w      	r1, (r3, 0x18)
    14f4:	07f0      	br      	0x14d4	// 14d4 <ET_CH2_DSTSEL+0x46>

000014f6 <ET_CH2_SRCSEL>:
//NewState:ENABLE,DISABLE
//ReturnValue:NONE
/*************************************************************/ 
void ET_CH2_SRCSEL(FunctionalStatus NewState,CRC_TRIGMODE_TypeDef TRIGMODEX,U8_T SRCSEL_X)
{
	if (NewState != DISABLE)
    14f6:	3840      	cmpnei      	r0, 0
    14f8:	1073      	lrw      	r3, 0x2000006c	// 1544 <ET_CHx_CONTROL+0x2c>
    14fa:	4259      	lsli      	r2, r2, 25
    14fc:	0c08      	bf      	0x150c	// 150c <ET_CH2_SRCSEL+0x16>
	{
		ETCB->CH2CON1  |= 0x01| (SRCSEL_X<<25)| TRIGMODEX;
    14fe:	9300      	ld.w      	r0, (r3, 0x0)
    1500:	9067      	ld.w      	r3, (r0, 0x1c)
    1502:	3ba0      	bseti      	r3, 0
    1504:	6c4c      	or      	r1, r3
    1506:	6c84      	or      	r2, r1
    1508:	b047      	st.w      	r2, (r0, 0x1c)
	else
	{
		ETCB->CH2CON1  &= 0x00| (SRCSEL_X<<25)| TRIGMODEX;
	}
	
}
    150a:	783c      	jmp      	r15
		ETCB->CH2CON1  &= 0x00| (SRCSEL_X<<25)| TRIGMODEX;
    150c:	9360      	ld.w      	r3, (r3, 0x0)
    150e:	9307      	ld.w      	r0, (r3, 0x1c)
    1510:	6c84      	or      	r2, r1
    1512:	6880      	and      	r2, r0
    1514:	b347      	st.w      	r2, (r3, 0x1c)
}
    1516:	07fa      	br      	0x150a	// 150a <ET_CH2_SRCSEL+0x14>

00001518 <ET_CHx_CONTROL>:
//EntryParameter:NewState,TRIGMODEX,SRCSEL_X
//NewState:ENABLE,DISABLE
//ReturnValue:NONE
/*************************************************************/ 
void ET_CHx_CONTROL(CRC_ETCHX_TypeDef ETCHX,FunctionalStatus NewState,CRC_TRIGMODE_TypeDef TRIGMODEX,U8_T SRCSEL_X,U8_T DSTSEL_X)
{
    1518:	14c3      	push      	r4-r6
    151a:	10ab      	lrw      	r5, 0x2000006c	// 1544 <ET_CHx_CONTROL+0x2c>
    151c:	4082      	lsli      	r4, r0, 2
    151e:	9500      	ld.w      	r0, (r5, 0x0)
    1520:	d8ce000c 	ld.b      	r6, (r14, 0xc)
	if (NewState != DISABLE)
    1524:	3940      	cmpnei      	r1, 0
    1526:	6010      	addu      	r0, r4
    1528:	463a      	lsli      	r1, r6, 26
    152a:	436c      	lsli      	r3, r3, 12
	{
		ETCB->CH3_31CON[ETCHX]  |= 0x01|(SRCSEL_X<<12)| (DSTSEL_X<<26)| TRIGMODEX;
    152c:	908c      	ld.w      	r4, (r0, 0x30)
	if (NewState != DISABLE)
    152e:	0c07      	bf      	0x153c	// 153c <ET_CHx_CONTROL+0x24>
		ETCB->CH3_31CON[ETCHX]  |= 0x01|(SRCSEL_X<<12)| (DSTSEL_X<<26)| TRIGMODEX;
    1530:	39a0      	bseti      	r1, 0
    1532:	6cc4      	or      	r3, r1
    1534:	6c90      	or      	r2, r4
    1536:	6cc8      	or      	r3, r2


	}
	else
	{
		ETCB->CH3_31CON[ETCHX]  &= 0x00|(SRCSEL_X<<12)| (DSTSEL_X<<26)| TRIGMODEX;
    1538:	b06c      	st.w      	r3, (r0, 0x30)

	}
    153a:	1483      	pop      	r4-r6
		ETCB->CH3_31CON[ETCHX]  &= 0x00|(SRCSEL_X<<12)| (DSTSEL_X<<26)| TRIGMODEX;
    153c:	6cc4      	or      	r3, r1
    153e:	6cc8      	or      	r3, r2
    1540:	68d0      	and      	r3, r4
    1542:	07fb      	br      	0x1538	// 1538 <ET_CHx_CONTROL+0x20>
    1544:	2000006c 	.long	0x2000006c

00001548 <WWDT_DeInit>:
//EntryParameter:NONE
//ReturnValue:NONE
/*************************************************************/  
void WWDT_DeInit(void)
{
	WWDT->CR 	= 0x000000FF;
    1548:	1066      	lrw      	r3, 0x20000030	// 1560 <WWDT_DeInit+0x18>
    154a:	32ff      	movi      	r2, 255
    154c:	9360      	ld.w      	r3, (r3, 0x0)
    154e:	b340      	st.w      	r2, (r3, 0x0)
	WWDT->CFGR 	= 0x000000FF;
    1550:	b341      	st.w      	r2, (r3, 0x4)
	WWDT->RISR 	= WWDT_RESET_VALUE;
    1552:	3200      	movi      	r2, 0
    1554:	b342      	st.w      	r2, (r3, 0x8)
	WWDT->MISR	= WWDT_RESET_VALUE;
    1556:	b343      	st.w      	r2, (r3, 0xc)
	WWDT->IMCR 	= WWDT_RESET_VALUE;
    1558:	b344      	st.w      	r2, (r3, 0x10)
	WWDT->ICR 	= WWDT_RESET_VALUE;
    155a:	b345      	st.w      	r2, (r3, 0x14)
}
    155c:	783c      	jmp      	r15
    155e:	0000      	bkpt
    1560:	20000030 	.long	0x20000030

00001564 <WWDT_CONFIG>:
//WWDT CONFIG
//EntryParameter:NONE
//ReturnValue:NONE
/*************************************************************/ 
void WWDT_CONFIG(WWDT_PSCDIV_TypeDef PSCDIVX,U8_T WND_DATA,WWDT_DBGEN_TypeDef DBGENX)
{
    1564:	14c1      	push      	r4
	WWDT->CFGR =WND_DATA;
    1566:	1079      	lrw      	r3, 0x20000030	// 15c8 <WWDT_Int_Config+0x32>
    1568:	9380      	ld.w      	r4, (r3, 0x0)
    156a:	b421      	st.w      	r1, (r4, 0x4)
	WWDT->CFGR |= PSCDIVX |DBGENX;
    156c:	9461      	ld.w      	r3, (r4, 0x4)
    156e:	6c8c      	or      	r2, r3
    1570:	6c08      	or      	r0, r2
    1572:	b401      	st.w      	r0, (r4, 0x4)
}
    1574:	1481      	pop      	r4

00001576 <WWDT_CMD>:
//WWDT ENABLE/DISABLE
//EntryParameter:NONE
//ReturnValue:NONE
/*************************************************************/ 
void WWDT_CMD(FunctionalStatus NewState)
{
    1576:	1075      	lrw      	r3, 0x20000030	// 15c8 <WWDT_Int_Config+0x32>
	if (NewState != DISABLE)
    1578:	3840      	cmpnei      	r0, 0
	{
		WWDT->CR  |= 0x01<<8;						
    157a:	9340      	ld.w      	r2, (r3, 0x0)
    157c:	9260      	ld.w      	r3, (r2, 0x0)
	if (NewState != DISABLE)
    157e:	0c04      	bf      	0x1586	// 1586 <WWDT_CMD+0x10>
		WWDT->CR  |= 0x01<<8;						
    1580:	3ba8      	bseti      	r3, 8
	}
	else
	{
		WWDT->CR  &= 0xfffffeff;					
    1582:	b260      	st.w      	r3, (r2, 0x0)
	}
}
    1584:	783c      	jmp      	r15
		WWDT->CR  &= 0xfffffeff;					
    1586:	3b88      	bclri      	r3, 8
    1588:	07fd      	br      	0x1582	// 1582 <WWDT_CMD+0xc>

0000158a <WWDT_CNT_Load>:
//EntryParameter:NONE
//ReturnValue:NONE
/*************************************************************/ 
void WWDT_CNT_Load(U8_T cnt_data)
{
	WWDT->CR  |= cnt_data;						//SET
    158a:	1070      	lrw      	r3, 0x20000030	// 15c8 <WWDT_Int_Config+0x32>
    158c:	9360      	ld.w      	r3, (r3, 0x0)
    158e:	9340      	ld.w      	r2, (r3, 0x0)
    1590:	6c08      	or      	r0, r2
    1592:	b300      	st.w      	r0, (r3, 0x0)
}
    1594:	783c      	jmp      	r15

00001596 <WWDT_Int_Config>:
//EntryParameter:NONE
//ReturnValue: NONE
/*************************************************************/
void WWDT_Int_Config(FunctionalStatus NewState)
{
	if (NewState != DISABLE)
    1596:	3840      	cmpnei      	r0, 0
    1598:	106c      	lrw      	r3, 0x20000030	// 15c8 <WWDT_Int_Config+0x32>
    159a:	102d      	lrw      	r1, 0x20000078	// 15cc <WWDT_Int_Config+0x36>
    159c:	0c0d      	bf      	0x15b6	// 15b6 <WWDT_Int_Config+0x20>
	{
		WWDT->ICR = WWDT_EVI;				
    159e:	9360      	ld.w      	r3, (r3, 0x0)
    15a0:	3001      	movi      	r0, 1
    15a2:	b305      	st.w      	r0, (r3, 0x14)
		WWDT->IMCR  |= WWDT_EVI;
    15a4:	9344      	ld.w      	r2, (r3, 0x10)
    15a6:	6c80      	or      	r2, r0
    15a8:	b344      	st.w      	r2, (r3, 0x10)
		INTC_ISER_WRITE(WWDT_INT);  
    15aa:	9160      	ld.w      	r3, (r1, 0x0)
    15ac:	23ff      	addi      	r3, 256
	}
	else
	{
		WWDT->IMCR  &= ~WWDT_EVI;					//CLR
		INTC_ICER_WRITE(WWDT_INT);  
    15ae:	3280      	movi      	r2, 128
    15b0:	4245      	lsli      	r2, r2, 5
    15b2:	b340      	st.w      	r2, (r3, 0x0)
	}
    15b4:	783c      	jmp      	r15
		WWDT->IMCR  &= ~WWDT_EVI;					//CLR
    15b6:	9340      	ld.w      	r2, (r3, 0x0)
    15b8:	9264      	ld.w      	r3, (r2, 0x10)
    15ba:	3b80      	bclri      	r3, 0
    15bc:	b264      	st.w      	r3, (r2, 0x10)
		INTC_ICER_WRITE(WWDT_INT);  
    15be:	32c0      	movi      	r2, 192
    15c0:	9160      	ld.w      	r3, (r1, 0x0)
    15c2:	4241      	lsli      	r2, r2, 1
    15c4:	60c8      	addu      	r3, r2
    15c6:	07f4      	br      	0x15ae	// 15ae <WWDT_Int_Config+0x18>
    15c8:	20000030 	.long	0x20000030
    15cc:	20000078 	.long	0x20000078

000015d0 <SYSCON_General_CMD.part.0>:
/*************************************************************/  
void SYSCON_General_CMD(FunctionalStatus NewState, SYSCON_General_CMD_TypeDef ENDIS_X )
{
	if (NewState != DISABLE)
	{
		if(ENDIS_X==ENDIS_EMOSC) 
    15d0:	3848      	cmpnei      	r0, 8
    15d2:	080a      	bt      	0x15e6	// 15e6 <SYSCON_General_CMD.part.0+0x16>
		GPIOA0->CONLR=(GPIOA0->CONLR & 0XFFF00FFF)|0x00044000;					//enable EMOSC PIN
    15d4:	107a      	lrw      	r3, 0x20000014	// 163c <SYSCON_General_CMD.part.0+0x6c>
    15d6:	32ff      	movi      	r2, 255
    15d8:	9320      	ld.w      	r1, (r3, 0x0)
    15da:	9160      	ld.w      	r3, (r1, 0x0)
    15dc:	424c      	lsli      	r2, r2, 12
    15de:	68c9      	andn      	r3, r2
    15e0:	3bae      	bseti      	r3, 14
    15e2:	3bb2      	bseti      	r3, 18
    15e4:	b160      	st.w      	r3, (r1, 0x0)
		SYSCON->GCER|=ENDIS_X;													//enable SYSCON General Control
    15e6:	1077      	lrw      	r3, 0x20000070	// 1640 <SYSCON_General_CMD.part.0+0x70>
    15e8:	9360      	ld.w      	r3, (r3, 0x0)
    15ea:	9341      	ld.w      	r2, (r3, 0x4)
    15ec:	6c80      	or      	r2, r0
    15ee:	b341      	st.w      	r2, (r3, 0x4)
		while(!(SYSCON->GCSR&ENDIS_X));											//check  Enable?	
    15f0:	9343      	ld.w      	r2, (r3, 0xc)
    15f2:	6880      	and      	r2, r0
    15f4:	3a40      	cmpnei      	r2, 0
    15f6:	0ffd      	bf      	0x15f0	// 15f0 <SYSCON_General_CMD.part.0+0x20>
		switch(ENDIS_X)
    15f8:	3842      	cmpnei      	r0, 2
    15fa:	0807      	bt      	0x1608	// 1608 <SYSCON_General_CMD.part.0+0x38>
		{
			case ENDIS_IMOSC:
				while (!(SYSCON->CKST & ENDIS_IMOSC)); 	
    15fc:	3102      	movi      	r1, 2
    15fe:	9344      	ld.w      	r2, (r3, 0x10)
    1600:	6884      	and      	r2, r1
    1602:	3a40      	cmpnei      	r2, 0
    1604:	0ffd      	bf      	0x15fe	// 15fe <SYSCON_General_CMD.part.0+0x2e>
	{
		SYSCON->GCDR|=ENDIS_X;													//disable SYSCON General Control
		while(SYSCON->GCSR&ENDIS_X);											//check Disable?
		SYSCON->ICR|=ENDIS_X;													//Clear ENDIS_X stable bit
	}
}
    1606:	783c      	jmp      	r15
		switch(ENDIS_X)
    1608:	3802      	cmphsi      	r0, 3
    160a:	0809      	bt      	0x161c	// 161c <SYSCON_General_CMD.part.0+0x4c>
    160c:	3841      	cmpnei      	r0, 1
    160e:	0bfc      	bt      	0x1606	// 1606 <SYSCON_General_CMD.part.0+0x36>
				while (!(SYSCON->CKST & ENDIS_ISOSC)); 
    1610:	3101      	movi      	r1, 1
    1612:	9344      	ld.w      	r2, (r3, 0x10)
    1614:	6884      	and      	r2, r1
    1616:	3a40      	cmpnei      	r2, 0
    1618:	0ffd      	bf      	0x1612	// 1612 <SYSCON_General_CMD.part.0+0x42>
    161a:	07f6      	br      	0x1606	// 1606 <SYSCON_General_CMD.part.0+0x36>
		switch(ENDIS_X)
    161c:	3848      	cmpnei      	r0, 8
    161e:	0807      	bt      	0x162c	// 162c <SYSCON_General_CMD.part.0+0x5c>
				while (!(SYSCON->CKST & ENDIS_EMOSC)); 
    1620:	3108      	movi      	r1, 8
    1622:	9344      	ld.w      	r2, (r3, 0x10)
    1624:	6884      	and      	r2, r1
    1626:	3a40      	cmpnei      	r2, 0
    1628:	0ffd      	bf      	0x1622	// 1622 <SYSCON_General_CMD.part.0+0x52>
    162a:	07ee      	br      	0x1606	// 1606 <SYSCON_General_CMD.part.0+0x36>
		switch(ENDIS_X)
    162c:	3850      	cmpnei      	r0, 16
    162e:	0bec      	bt      	0x1606	// 1606 <SYSCON_General_CMD.part.0+0x36>
				while (!(SYSCON->CKST & ENDIS_HFOSC)); 
    1630:	3110      	movi      	r1, 16
    1632:	9344      	ld.w      	r2, (r3, 0x10)
    1634:	6884      	and      	r2, r1
    1636:	3a40      	cmpnei      	r2, 0
    1638:	0ffd      	bf      	0x1632	// 1632 <SYSCON_General_CMD.part.0+0x62>
    163a:	07e6      	br      	0x1606	// 1606 <SYSCON_General_CMD.part.0+0x36>
    163c:	20000014 	.long	0x20000014
    1640:	20000070 	.long	0x20000070

00001644 <SYSCON_RST_VALUE>:
	SYSCON->RAMCHK=SYSCON_RAMCHK_RST;
    1644:	0174      	lrw      	r3, 0x20000070	// 1970 <EXI1_WakeUp_Enable+0x4>
    1646:	0153      	lrw      	r2, 0xffff	// 1974 <EXI1_WakeUp_Enable+0x8>
    1648:	9360      	ld.w      	r3, (r3, 0x0)
    164a:	b345      	st.w      	r2, (r3, 0x14)
	SYSCON->EFLCHK=SYSCON_EFLCHK_RST;
    164c:	0154      	lrw      	r2, 0xffffff	// 1978 <EXI1_WakeUp_Enable+0xc>
    164e:	b346      	st.w      	r2, (r3, 0x18)
	SYSCON->SCLKCR=SYSCON_SCLKCR_RST;
    1650:	0154      	lrw      	r2, 0xd22d0000	// 197c <EXI1_WakeUp_Enable+0x10>
    1652:	b347      	st.w      	r2, (r3, 0x1c)
	SYSCON->OSTR=SYSCON_OSTR_RST;
    1654:	0154      	lrw      	r2, 0x70ff3bff	// 1980 <EXI1_WakeUp_Enable+0x14>
    1656:	b350      	st.w      	r2, (r3, 0x40)
	SYSCON->EXIRT=SYSCON_EXIRT_RST;
    1658:	3180      	movi      	r1, 128
	SYSCON->LVDCR=SYSCON_LVDCR_RST;
    165a:	320a      	movi      	r2, 10
    165c:	b353      	st.w      	r2, (r3, 0x4c)
	SYSCON->EXIRT=SYSCON_EXIRT_RST;
    165e:	604c      	addu      	r1, r3
    1660:	3200      	movi      	r2, 0
	SYSCON->IWDCR=SYSCON_IWDCR_RST;
    1662:	0116      	lrw      	r0, 0x70c	// 1984 <EXI1_WakeUp_Enable+0x18>
	SYSCON->EXIRT=SYSCON_EXIRT_RST;
    1664:	b145      	st.w      	r2, (r1, 0x14)
	SYSCON->UREG0=SYSCON_UREG0_RST;
    1666:	23ff      	addi      	r3, 256
	SYSCON->EXIFT=SYSCON_EXIFT_RST;
    1668:	b146      	st.w      	r2, (r1, 0x18)
	SYSCON->IWDCR=SYSCON_IWDCR_RST;
    166a:	b10d      	st.w      	r0, (r1, 0x34)
	SYSCON->IWDCNT=SYSCON_IWDCNT_RST;
    166c:	0118      	lrw      	r0, 0x3fe	// 1988 <EXI1_WakeUp_Enable+0x1c>
    166e:	b10e      	st.w      	r0, (r1, 0x38)
	SYSCON->EVTRG=SYSCON_EVTRG_RST;
    1670:	b15d      	st.w      	r2, (r1, 0x74)
	SYSCON->EVPS=SYSCON_EVPS_RST;
    1672:	b15e      	st.w      	r2, (r1, 0x78)
	SYSCON->EVSWF=SYSCON_EVSWF_RST;
    1674:	b15f      	st.w      	r2, (r1, 0x7c)
	SYSCON->UREG0=SYSCON_UREG0_RST;
    1676:	b340      	st.w      	r2, (r3, 0x0)
	SYSCON->UREG1=SYSCON_UREG1_RST;
    1678:	b341      	st.w      	r2, (r3, 0x4)
	SYSCON->UREG2=SYSCON_UREG2_RST;
    167a:	b342      	st.w      	r2, (r3, 0x8)
	SYSCON->DBGCR=SYSCON_DBGCR_RST;
    167c:	325a      	movi      	r2, 90
    167e:	b34a      	st.w      	r2, (r3, 0x28)
}
    1680:	783c      	jmp      	r15

00001682 <EMOSC_OSTR_Config>:
{
    1682:	14c2      	push      	r4-r5
    1684:	9882      	ld.w      	r4, (r14, 0x8)
    1686:	6d53      	mov      	r5, r4
	SYSCON->OSTR=EM_CNT|(EM_GM<<11)|EM_LFSEL_X|EM_FLEN_X|EM_FLSEL_X;
    1688:	6cd4      	or      	r3, r5
    168a:	412b      	lsli      	r1, r1, 11
    168c:	6c40      	or      	r1, r0
    168e:	6c8c      	or      	r2, r3
    1690:	0287      	lrw      	r4, 0x20000070	// 1970 <EXI1_WakeUp_Enable+0x4>
    1692:	6c48      	or      	r1, r2
    1694:	9480      	ld.w      	r4, (r4, 0x0)
    1696:	b430      	st.w      	r1, (r4, 0x40)
}
    1698:	1482      	pop      	r4-r5

0000169a <SYSCON_General_CMD>:
{
    169a:	14d0      	push      	r15
	if (NewState != DISABLE)
    169c:	3840      	cmpnei      	r0, 0
    169e:	0c05      	bf      	0x16a8	// 16a8 <SYSCON_General_CMD+0xe>
    16a0:	6c07      	mov      	r0, r1
    16a2:	e3ffff97 	bsr      	0x15d0	// 15d0 <SYSCON_General_CMD.part.0>
}
    16a6:	1490      	pop      	r15
		SYSCON->GCDR|=ENDIS_X;													//disable SYSCON General Control
    16a8:	026d      	lrw      	r3, 0x20000070	// 1970 <EXI1_WakeUp_Enable+0x4>
    16aa:	9360      	ld.w      	r3, (r3, 0x0)
    16ac:	9342      	ld.w      	r2, (r3, 0x8)
    16ae:	6c84      	or      	r2, r1
    16b0:	b342      	st.w      	r2, (r3, 0x8)
		while(SYSCON->GCSR&ENDIS_X);											//check Disable?
    16b2:	9343      	ld.w      	r2, (r3, 0xc)
    16b4:	6884      	and      	r2, r1
    16b6:	3a40      	cmpnei      	r2, 0
    16b8:	0bfd      	bt      	0x16b2	// 16b2 <SYSCON_General_CMD+0x18>
		SYSCON->ICR|=ENDIS_X;													//Clear ENDIS_X stable bit
    16ba:	237f      	addi      	r3, 128
    16bc:	9301      	ld.w      	r0, (r3, 0x4)
    16be:	6c40      	or      	r1, r0
    16c0:	b321      	st.w      	r1, (r3, 0x4)
}
    16c2:	07f2      	br      	0x16a6	// 16a6 <SYSCON_General_CMD+0xc>

000016c4 <SystemCLK_HCLKDIV_PCLKDIV_Config>:
//SystemClk_data_x:EMOSC_24M,EMOSC_16M,EMOSC_12M,EMOSC_8M,EMOSC_4M,EMOSC_36K,
//ISOSC,IMOSC,HFOSC_48M,HFOSC_24M,HFOSC_12M,HFOSC_6M
//ReturnValue:NONE
/*************************************************************/ 
void SystemCLK_HCLKDIV_PCLKDIV_Config(SystemCLK_TypeDef SYSCLK_X , SystemCLK_Div_TypeDef HCLK_DIV_X , PCLK_Div_TypeDef PCLK_DIV_X , SystemClk_data_TypeDef SystemClk_data_x )
{
    16c4:	14c2      	push      	r4-r5
	if(SystemClk_data_x==HFOSC_48M)
    16c6:	3b48      	cmpnei      	r3, 8
    16c8:	0828      	bt      	0x1718	// 1718 <SystemCLK_HCLKDIV_PCLKDIV_Config+0x54>
	{
		IFC->CEDR=0X01;						//CLKEN
    16ca:	028e      	lrw      	r4, 0x20000074	// 198c <EXI1_WakeUp_Enable+0x20>
    16cc:	3501      	movi      	r5, 1
    16ce:	9480      	ld.w      	r4, (r4, 0x0)
    16d0:	b4a1      	st.w      	r5, (r4, 0x4)
		IFC->MR=0X04|(0X00<<16);			//High speed mode
    16d2:	3504      	movi      	r5, 4
    16d4:	b4a5      	st.w      	r5, (r4, 0x14)
	if((SystemClk_data_x==EMOSC_24M)||(SystemClk_data_x==HFOSC_24M))
	{
		IFC->CEDR=0X01;						//CLKEN
		IFC->MR=0X02|(0X00<<16);			//Medium speed mode
	}
	if((SystemClk_data_x==EMOSC_12M)||(SystemClk_data_x==HFOSC_12M)||(SystemClk_data_x==EMOSC_16M))
    16d6:	5b83      	subi      	r4, r3, 1
    16d8:	3c01      	cmphsi      	r4, 2
    16da:	0c2b      	bf      	0x1730	// 1730 <SystemCLK_HCLKDIV_PCLKDIV_Config+0x6c>
	{
		IFC->CEDR=0X01;						//CLKEN
		IFC->MR=0X01|(0X00<<16);			//Low speed mode
	}
	if((SystemClk_data_x==EMOSC_8M)||(SystemClk_data_x==EMOSC_4M)||(SystemClk_data_x==EMOSC_36K)
		||(SystemClk_data_x==IMOSC)||(SystemClk_data_x==ISOSC)||(SystemClk_data_x==HFOSC_6M))
    16dc:	5b8b      	subi      	r4, r3, 3
	if((SystemClk_data_x==EMOSC_8M)||(SystemClk_data_x==EMOSC_4M)||(SystemClk_data_x==EMOSC_36K)
    16de:	3c04      	cmphsi      	r4, 5
    16e0:	0c03      	bf      	0x16e6	// 16e6 <SystemCLK_HCLKDIV_PCLKDIV_Config+0x22>
		||(SystemClk_data_x==IMOSC)||(SystemClk_data_x==ISOSC)||(SystemClk_data_x==HFOSC_6M))
    16e2:	3b4b      	cmpnei      	r3, 11
    16e4:	0807      	bt      	0x16f2	// 16f2 <SystemCLK_HCLKDIV_PCLKDIV_Config+0x2e>
	{
		IFC->CEDR=0X01;						//CLKEN
    16e6:	0275      	lrw      	r3, 0x20000074	// 198c <EXI1_WakeUp_Enable+0x20>
    16e8:	3401      	movi      	r4, 1
    16ea:	9360      	ld.w      	r3, (r3, 0x0)
    16ec:	b381      	st.w      	r4, (r3, 0x4)
		IFC->MR=0X00|(0X00<<16);			//Low speed mode
    16ee:	3400      	movi      	r4, 0
    16f0:	b385      	st.w      	r4, (r3, 0x14)
	}
	SYSCON->SCLKCR=SYSCLK_KEY | HCLK_DIV_X| SYSCLK_X;
    16f2:	029c      	lrw      	r4, 0xd22d0000	// 197c <EXI1_WakeUp_Enable+0x10>
    16f4:	6c10      	or      	r0, r4
    16f6:	0360      	lrw      	r3, 0x20000070	// 1970 <EXI1_WakeUp_Enable+0x4>
    16f8:	6c40      	or      	r1, r0
    16fa:	9360      	ld.w      	r3, (r3, 0x0)
	while (!(SYSCON->CKST & (1<<8))); 											// waiting for sysclk stable
    16fc:	3080      	movi      	r0, 128
	SYSCON->SCLKCR=SYSCLK_KEY | HCLK_DIV_X| SYSCLK_X;
    16fe:	b327      	st.w      	r1, (r3, 0x1c)
	while (!(SYSCON->CKST & (1<<8))); 											// waiting for sysclk stable
    1700:	4001      	lsli      	r0, r0, 1
    1702:	9324      	ld.w      	r1, (r3, 0x10)
    1704:	6840      	and      	r1, r0
    1706:	3940      	cmpnei      	r1, 0
    1708:	0ffd      	bf      	0x1702	// 1702 <SystemCLK_HCLKDIV_PCLKDIV_Config+0x3e>
	SYSCON->PCLKCR=PCLK_KEY|PCLK_DIV_X;											//PCLK DIV 1 2 4 6 8 16		
    170a:	023d      	lrw      	r1, 0xc33c0000	// 1990 <EXI1_WakeUp_Enable+0x24>
    170c:	6c48      	or      	r1, r2
    170e:	b328      	st.w      	r1, (r3, 0x20)
	while(SYSCON->PCLKCR!=PCLK_DIV_X);											//Wait PCLK DIV
    1710:	9328      	ld.w      	r1, (r3, 0x20)
    1712:	644a      	cmpne      	r2, r1
    1714:	0bfe      	bt      	0x1710	// 1710 <SystemCLK_HCLKDIV_PCLKDIV_Config+0x4c>
}
    1716:	1482      	pop      	r4-r5
	if((SystemClk_data_x==EMOSC_24M)||(SystemClk_data_x==HFOSC_24M))
    1718:	3b40      	cmpnei      	r3, 0
    171a:	0c03      	bf      	0x1720	// 1720 <SystemCLK_HCLKDIV_PCLKDIV_Config+0x5c>
    171c:	3b49      	cmpnei      	r3, 9
    171e:	0807      	bt      	0x172c	// 172c <SystemCLK_HCLKDIV_PCLKDIV_Config+0x68>
		IFC->CEDR=0X01;						//CLKEN
    1720:	0384      	lrw      	r4, 0x20000074	// 198c <EXI1_WakeUp_Enable+0x20>
    1722:	3501      	movi      	r5, 1
    1724:	9480      	ld.w      	r4, (r4, 0x0)
    1726:	b4a1      	st.w      	r5, (r4, 0x4)
		IFC->MR=0X02|(0X00<<16);			//Medium speed mode
    1728:	3502      	movi      	r5, 2
    172a:	b4a5      	st.w      	r5, (r4, 0x14)
	if((SystemClk_data_x==EMOSC_12M)||(SystemClk_data_x==HFOSC_12M)||(SystemClk_data_x==EMOSC_16M))
    172c:	3b4a      	cmpnei      	r3, 10
    172e:	0bd4      	bt      	0x16d6	// 16d6 <SystemCLK_HCLKDIV_PCLKDIV_Config+0x12>
		IFC->CEDR=0X01;						//CLKEN
    1730:	0388      	lrw      	r4, 0x20000074	// 198c <EXI1_WakeUp_Enable+0x20>
    1732:	3501      	movi      	r5, 1
    1734:	9480      	ld.w      	r4, (r4, 0x0)
    1736:	b4a1      	st.w      	r5, (r4, 0x4)
		IFC->MR=0X01|(0X00<<16);			//Low speed mode
    1738:	b4a5      	st.w      	r5, (r4, 0x14)
    173a:	07d1      	br      	0x16dc	// 16dc <SystemCLK_HCLKDIV_PCLKDIV_Config+0x18>

0000173c <SystemCLK_Clear>:
//clear system clk register
//ReturnValue:NONE
/*************************************************************/ 
void SystemCLK_Clear(void)
{
	SYSCON->SCLKCR=0xd22d0000;
    173c:	0372      	lrw      	r3, 0x20000070	// 1970 <EXI1_WakeUp_Enable+0x4>
    173e:	034f      	lrw      	r2, 0xd22d0000	// 197c <EXI1_WakeUp_Enable+0x10>
    1740:	9360      	ld.w      	r3, (r3, 0x0)
    1742:	b347      	st.w      	r2, (r3, 0x1c)
	while(SYSCON->SCLKCR!=0);
    1744:	9347      	ld.w      	r2, (r3, 0x1c)
    1746:	3a40      	cmpnei      	r2, 0
    1748:	0bfe      	bt      	0x1744	// 1744 <SystemCLK_Clear+0x8>
}
    174a:	783c      	jmp      	r15

0000174c <SYSCON_IMOSC_SELECTE>:
//ReturnValue:NONE
/*************************************************************/  
void SYSCON_IMOSC_SELECTE(IMOSC_SELECTE_TypeDef IMOSC_SELECTE_X)
{		
	//SYSCON_General_CMD(DISABLE,ENDIS_IMOSC);					//disalbe IMOSC
	SYSCON->OPT1 = (SYSCON->OPT1 & 0XFFFFFFFC)|IMOSC_SELECTE_X;	//IMOSC CLK selected
    174c:	0376      	lrw      	r3, 0x20000070	// 1970 <EXI1_WakeUp_Enable+0x4>
    174e:	9340      	ld.w      	r2, (r3, 0x0)
    1750:	9279      	ld.w      	r3, (r2, 0x64)
    1752:	3b80      	bclri      	r3, 0
    1754:	3b81      	bclri      	r3, 1
    1756:	6c0c      	or      	r0, r3
    1758:	b219      	st.w      	r0, (r2, 0x64)
	//SYSCON_General_CMD(ENABLE,ENDIS_IMOSC);						//enable IMOSC
}
    175a:	783c      	jmp      	r15

0000175c <SYSCON_HFOSC_SELECTE>:
//EntryParameter:HFOSC_SELECTE_X
//HFOSC_SELECTE_X:HFOSC_SELECTE_48M,HFOSC_SELECTE_24M;HFOSC_SELECTE_12M;HFOSC_SELECTE_6M
//ReturnValue:NONE
/*************************************************************/  
void SYSCON_HFOSC_SELECTE(HFOSC_SELECTE_TypeDef HFOSC_SELECTE_X)
{		
    175c:	14d1      	push      	r4, r15
    175e:	6d03      	mov      	r4, r0
	SYSCON_General_CMD(DISABLE,ENDIS_HFOSC);					//disable HFOSC
    1760:	3110      	movi      	r1, 16
    1762:	3000      	movi      	r0, 0
    1764:	e3ffff9b 	bsr      	0x169a	// 169a <SYSCON_General_CMD>
	SYSCON->OPT1 = (SYSCON->OPT1 & 0XFFFFFFCF)|HFOSC_SELECTE_X;
    1768:	037d      	lrw      	r3, 0x20000070	// 1970 <EXI1_WakeUp_Enable+0x4>
    176a:	9360      	ld.w      	r3, (r3, 0x0)
    176c:	9319      	ld.w      	r0, (r3, 0x64)
    176e:	3884      	bclri      	r0, 4
    1770:	3885      	bclri      	r0, 5
    1772:	6c10      	or      	r0, r4
    1774:	b319      	st.w      	r0, (r3, 0x64)
    1776:	3010      	movi      	r0, 16
    1778:	e3ffff2c 	bsr      	0x15d0	// 15d0 <SYSCON_General_CMD.part.0>
	SYSCON_General_CMD(ENABLE,ENDIS_HFOSC);						//enable HFOSC
}
    177c:	1491      	pop      	r4, r15

0000177e <SYSCON_WDT_CMD>:
//EntryParameter:,NewState
//NewState:ENABLE,DISABLE
//ReturnValue:NONE
/*************************************************************/
void SYSCON_WDT_CMD(FunctionalStatus NewState)
{
    177e:	137d      	lrw      	r3, 0x20000070	// 1970 <EXI1_WakeUp_Enable+0x4>
	if(NewState != DISABLE)
    1780:	3840      	cmpnei      	r0, 0
	{
		SYSCON->IWDEDR=IWDTEDR_KEY|Enable_IWDT;
    1782:	9360      	ld.w      	r3, (r3, 0x0)
    1784:	237f      	addi      	r3, 128
	if(NewState != DISABLE)
    1786:	0c0a      	bf      	0x179a	// 179a <SYSCON_WDT_CMD+0x1c>
		SYSCON->IWDEDR=IWDTEDR_KEY|Enable_IWDT;
    1788:	035c      	lrw      	r2, 0x78870000	// 1994 <EXI1_WakeUp_Enable+0x28>
		while(!(SYSCON->IWDCR&Check_IWDT_BUSY));
    178a:	3180      	movi      	r1, 128
		SYSCON->IWDEDR=IWDTEDR_KEY|Enable_IWDT;
    178c:	b34f      	st.w      	r2, (r3, 0x3c)
		while(!(SYSCON->IWDCR&Check_IWDT_BUSY));
    178e:	4125      	lsli      	r1, r1, 5
    1790:	934d      	ld.w      	r2, (r3, 0x34)
    1792:	6884      	and      	r2, r1
    1794:	3a40      	cmpnei      	r2, 0
    1796:	0ffd      	bf      	0x1790	// 1790 <SYSCON_WDT_CMD+0x12>
	else
	{
		SYSCON->IWDEDR=IWDTEDR_KEY|Disable_IWDT;
		while(SYSCON->IWDCR&Check_IWDT_BUSY);
	}
}
    1798:	783c      	jmp      	r15
		SYSCON->IWDEDR=IWDTEDR_KEY|Disable_IWDT;
    179a:	035f      	lrw      	r2, 0x788755aa	// 1998 <EXI1_WakeUp_Enable+0x2c>
		while(SYSCON->IWDCR&Check_IWDT_BUSY);
    179c:	3180      	movi      	r1, 128
		SYSCON->IWDEDR=IWDTEDR_KEY|Disable_IWDT;
    179e:	b34f      	st.w      	r2, (r3, 0x3c)
		while(SYSCON->IWDCR&Check_IWDT_BUSY);
    17a0:	4125      	lsli      	r1, r1, 5
    17a2:	934d      	ld.w      	r2, (r3, 0x34)
    17a4:	6884      	and      	r2, r1
    17a6:	3a40      	cmpnei      	r2, 0
    17a8:	0bfd      	bt      	0x17a2	// 17a2 <SYSCON_WDT_CMD+0x24>
    17aa:	07f7      	br      	0x1798	// 1798 <SYSCON_WDT_CMD+0x1a>

000017ac <SYSCON_IWDCNT_Reload>:
//EntryParameter:NONE
//ReturnValue: NONE
/*************************************************************/
void SYSCON_IWDCNT_Reload(void)
{
	SYSCON->IWDCNT=CLR_IWDT;
    17ac:	1371      	lrw      	r3, 0x20000070	// 1970 <EXI1_WakeUp_Enable+0x4>
    17ae:	32b4      	movi      	r2, 180
    17b0:	9360      	ld.w      	r3, (r3, 0x0)
    17b2:	237f      	addi      	r3, 128
    17b4:	4257      	lsli      	r2, r2, 23
    17b6:	b34e      	st.w      	r2, (r3, 0x38)
}
    17b8:	783c      	jmp      	r15

000017ba <SYSCON_IWDCNT_Config>:
//IWDT_INTW_DIV_X:IWDT_INTW_DIV_1/2/3/4/4/5/6
//ReturnValue: NONE
/*************************************************************/
void SYSCON_IWDCNT_Config(IWDT_TIME_TypeDef IWDT_TIME_X , IWDT_TIMEDIV_TypeDef IWDT_INTW_DIV_X )
{
	SYSCON->IWDCR=IWDT_KEY|IWDT_TIME_X|IWDT_INTW_DIV_X;
    17ba:	1359      	lrw      	r2, 0x87780000	// 199c <EXI1_WakeUp_Enable+0x30>
    17bc:	136d      	lrw      	r3, 0x20000070	// 1970 <EXI1_WakeUp_Enable+0x4>
    17be:	6c48      	or      	r1, r2
    17c0:	9360      	ld.w      	r3, (r3, 0x0)
    17c2:	6c04      	or      	r0, r1
    17c4:	237f      	addi      	r3, 128
    17c6:	b30d      	st.w      	r0, (r3, 0x34)
}
    17c8:	783c      	jmp      	r15

000017ca <SYSCON_LVD_Config>:
//X_LVD_INT:ENABLE_LVD_INT,DISABLE_LVD_INT
//INTDET_POL_X:INTDET_POL_fall,INTDET_POL_X_rise,INTDET_POL_X_riseORfall
//ReturnValue: NONE
/*************************************************************/
void SYSCON_LVD_Config(X_LVDEN_TypeDef X_LVDEN , INTDET_LVL_X_TypeDef INTDET_LVL_X , RSTDET_LVL_X_TypeDef RSTDET_LVL_X , X_LVD_INT_TypeDef X_LVD_INT , INTDET_POL_X_TypeDef INTDET_POL_X)
{
    17ca:	14c3      	push      	r4-r6
    17cc:	9883      	ld.w      	r4, (r14, 0xc)
	//SYSCON->LVDCR=LVD_KEY;
	SYSCON->LVDCR=LVD_KEY|X_LVDEN|INTDET_LVL_X|RSTDET_LVL_X|X_LVD_INT|INTDET_POL_X;
    17ce:	13d5      	lrw      	r6, 0xb44b0000	// 19a0 <EXI1_WakeUp_Enable+0x34>
    17d0:	6d18      	or      	r4, r6
    17d2:	6cd0      	or      	r3, r4
    17d4:	6c8c      	or      	r2, r3
    17d6:	6c48      	or      	r1, r2
    17d8:	13a6      	lrw      	r5, 0x20000070	// 1970 <EXI1_WakeUp_Enable+0x4>
    17da:	6c04      	or      	r0, r1
    17dc:	95a0      	ld.w      	r5, (r5, 0x0)
    17de:	b513      	st.w      	r0, (r5, 0x4c)
}
    17e0:	1483      	pop      	r4-r6

000017e2 <LVD_Int_Enable>:
//EntryParameter:NONE
//ReturnValue: NONE
/*************************************************************/
void LVD_Int_Enable(void)
{
	SYSCON->ICR = LVD_INT_ST;				//clear LVD INT status
    17e2:	1364      	lrw      	r3, 0x20000070	// 1970 <EXI1_WakeUp_Enable+0x4>
    17e4:	3180      	movi      	r1, 128
    17e6:	9360      	ld.w      	r3, (r3, 0x0)
    17e8:	3280      	movi      	r2, 128
    17ea:	604c      	addu      	r1, r3
    17ec:	4244      	lsli      	r2, r2, 4
    17ee:	b141      	st.w      	r2, (r1, 0x4)
	SYSCON->IMER  |= LVD_INT_ST;
    17f0:	935d      	ld.w      	r2, (r3, 0x74)
    17f2:	3aab      	bseti      	r2, 11
    17f4:	b35d      	st.w      	r2, (r3, 0x74)
}
    17f6:	783c      	jmp      	r15

000017f8 <LVD_Int_Disable>:
//EntryParameter:NONE
//ReturnValue: NONE
/*************************************************************/
void LVD_Int_Disable(void)
{
	SYSCON->IMDR  |= LVD_INT_ST;
    17f8:	127e      	lrw      	r3, 0x20000070	// 1970 <EXI1_WakeUp_Enable+0x4>
    17fa:	9340      	ld.w      	r2, (r3, 0x0)
    17fc:	927e      	ld.w      	r3, (r2, 0x78)
    17fe:	3bab      	bseti      	r3, 11
    1800:	b27e      	st.w      	r3, (r2, 0x78)
}
    1802:	783c      	jmp      	r15

00001804 <IWDT_Int_Enable>:
//EntryParameter:NONE
//ReturnValue: NONE
/*************************************************************/
void IWDT_Int_Enable(void)
{
	SYSCON->ICR = IWDT_INT_ST;				//clear LVD INT status
    1804:	127b      	lrw      	r3, 0x20000070	// 1970 <EXI1_WakeUp_Enable+0x4>
    1806:	3180      	movi      	r1, 128
    1808:	9360      	ld.w      	r3, (r3, 0x0)
    180a:	3280      	movi      	r2, 128
    180c:	604c      	addu      	r1, r3
    180e:	4241      	lsli      	r2, r2, 1
    1810:	b141      	st.w      	r2, (r1, 0x4)
	SYSCON->IMER  |= IWDT_INT_ST;
    1812:	935d      	ld.w      	r2, (r3, 0x74)
    1814:	3aa8      	bseti      	r2, 8
    1816:	b35d      	st.w      	r2, (r3, 0x74)
}
    1818:	783c      	jmp      	r15

0000181a <IWDT_Int_Disable>:
//EntryParameter:NONE
//ReturnValue: NONE
/*************************************************************/
void IWDT_Int_Disable(void)
{
	SYSCON->IMDR  |= IWDT_INT_ST;
    181a:	1276      	lrw      	r3, 0x20000070	// 1970 <EXI1_WakeUp_Enable+0x4>
    181c:	9340      	ld.w      	r2, (r3, 0x0)
    181e:	927e      	ld.w      	r3, (r2, 0x78)
    1820:	3ba8      	bseti      	r3, 8
    1822:	b27e      	st.w      	r3, (r2, 0x78)
}
    1824:	783c      	jmp      	r15

00001826 <Read_Reset_Status>:
//rsr_dat=0x80 cpu request reset
//rsr_dat=0x100 software reset
/*************************************************************/
U32_T Read_Reset_Status(void)
{
	return (SYSCON->RSR & 0x1ff);
    1826:	1273      	lrw      	r3, 0x20000070	// 1970 <EXI1_WakeUp_Enable+0x4>
    1828:	9360      	ld.w      	r3, (r3, 0x0)
    182a:	237f      	addi      	r3, 128
    182c:	9304      	ld.w      	r0, (r3, 0x10)
    182e:	127e      	lrw      	r3, 0x1ff	// 19a4 <EXI1_WakeUp_Enable+0x38>
    1830:	680c      	and      	r0, r3
}
    1832:	783c      	jmp      	r15

00001834 <EXTI_trigger_CMD>:
//EXI_tringer_mode:_EXIRT,_EXIFT
//ReturnValue: LVD detection flag
/*************************************************************/
void EXTI_trigger_CMD(FunctionalStatus NewState , SYSCON_EXIPIN_TypeDef  EXIPIN , EXI_tringer_mode_TypeDef EXI_tringer_mode)
{
	switch(EXI_tringer_mode)
    1834:	3a40      	cmpnei      	r2, 0
    1836:	0c04      	bf      	0x183e	// 183e <EXTI_trigger_CMD+0xa>
    1838:	3a41      	cmpnei      	r2, 1
    183a:	0c0e      	bf      	0x1856	// 1856 <EXTI_trigger_CMD+0x22>
		{
			SYSCON->EXIFT &=~EXIPIN;	
		}
		break;
	}	
}
    183c:	783c      	jmp      	r15
    183e:	126d      	lrw      	r3, 0x20000070	// 1970 <EXI1_WakeUp_Enable+0x4>
		if(NewState != DISABLE)
    1840:	3840      	cmpnei      	r0, 0
			SYSCON->EXIRT |=EXIPIN;
    1842:	9360      	ld.w      	r3, (r3, 0x0)
    1844:	237f      	addi      	r3, 128
    1846:	9345      	ld.w      	r2, (r3, 0x14)
		if(NewState != DISABLE)
    1848:	0c04      	bf      	0x1850	// 1850 <EXTI_trigger_CMD+0x1c>
			SYSCON->EXIRT |=EXIPIN;
    184a:	6c48      	or      	r1, r2
    184c:	b325      	st.w      	r1, (r3, 0x14)
    184e:	07f7      	br      	0x183c	// 183c <EXTI_trigger_CMD+0x8>
			SYSCON->EXIRT &=~EXIPIN;	
    1850:	6885      	andn      	r2, r1
    1852:	b345      	st.w      	r2, (r3, 0x14)
    1854:	07f4      	br      	0x183c	// 183c <EXTI_trigger_CMD+0x8>
    1856:	1267      	lrw      	r3, 0x20000070	// 1970 <EXI1_WakeUp_Enable+0x4>
		if(NewState != DISABLE)
    1858:	3840      	cmpnei      	r0, 0
			SYSCON->EXIFT |=EXIPIN;
    185a:	9360      	ld.w      	r3, (r3, 0x0)
    185c:	237f      	addi      	r3, 128
    185e:	9346      	ld.w      	r2, (r3, 0x18)
		if(NewState != DISABLE)
    1860:	0c04      	bf      	0x1868	// 1868 <EXTI_trigger_CMD+0x34>
			SYSCON->EXIFT |=EXIPIN;
    1862:	6c48      	or      	r1, r2
    1864:	b326      	st.w      	r1, (r3, 0x18)
    1866:	07eb      	br      	0x183c	// 183c <EXTI_trigger_CMD+0x8>
			SYSCON->EXIFT &=~EXIPIN;	
    1868:	6885      	andn      	r2, r1
    186a:	b346      	st.w      	r2, (r3, 0x18)
}
    186c:	07e8      	br      	0x183c	// 183c <EXTI_trigger_CMD+0x8>

0000186e <EXTI_interrupt_CMD>:
//NewState:ENABLE,DISABLE
//ReturnValue:NONE
/*************************************************************/
void EXTI_interrupt_CMD(FunctionalStatus NewState , SYSCON_EXIPIN_TypeDef  EXIPIN)
{
	SYSCON->EXICR = 0X3FFF;									//Claer EXI INT status
    186e:	1261      	lrw      	r3, 0x20000070	// 1970 <EXI1_WakeUp_Enable+0x4>
    1870:	124e      	lrw      	r2, 0x3fff	// 19a8 <EXI1_WakeUp_Enable+0x3c>
    1872:	9360      	ld.w      	r3, (r3, 0x0)
    1874:	237f      	addi      	r3, 128
	if(NewState != DISABLE)
    1876:	3840      	cmpnei      	r0, 0
	SYSCON->EXICR = 0X3FFF;									//Claer EXI INT status
    1878:	b34b      	st.w      	r2, (r3, 0x2c)
	if(NewState != DISABLE)
    187a:	0c0c      	bf      	0x1892	// 1892 <EXTI_interrupt_CMD+0x24>
	{
		SYSCON->EXIER|=EXIPIN;								//EXI4 interrupt enable
    187c:	9347      	ld.w      	r2, (r3, 0x1c)
    187e:	6c84      	or      	r2, r1
    1880:	b347      	st.w      	r2, (r3, 0x1c)
		while(!(SYSCON->EXIMR&EXIPIN));						//Check EXI is enabled or not
    1882:	9349      	ld.w      	r2, (r3, 0x24)
    1884:	6884      	and      	r2, r1
    1886:	3a40      	cmpnei      	r2, 0
    1888:	0ffd      	bf      	0x1882	// 1882 <EXTI_interrupt_CMD+0x14>
		SYSCON->EXICR |=EXIPIN;								// Clear EXI status bit
    188a:	934b      	ld.w      	r2, (r3, 0x2c)
    188c:	6c48      	or      	r1, r2
    188e:	b32b      	st.w      	r1, (r3, 0x2c)
	}
	else
	{
		SYSCON->EXIDR|=EXIPIN;
	}
}
    1890:	783c      	jmp      	r15
		SYSCON->EXIDR|=EXIPIN;
    1892:	9348      	ld.w      	r2, (r3, 0x20)
    1894:	6c48      	or      	r1, r2
    1896:	b328      	st.w      	r1, (r3, 0x20)
}
    1898:	07fc      	br      	0x1890	// 1890 <EXTI_interrupt_CMD+0x22>

0000189a <GPIO_EXTI_interrupt>:
//EntryParameter:NONE
//ReturnValue:NONE
/*************************************************************/
void GPIO_EXTI_interrupt(CSP_GPIO_T * GPIOX,U32_T GPIO_IECR_VALUE)
{
	GPIOX->IECR=GPIO_IECR_VALUE;
    189a:	b02b      	st.w      	r1, (r0, 0x2c)
}
    189c:	783c      	jmp      	r15

0000189e <PCLK_goto_idle_mode>:
//EntryParameter:NONE
//ReturnValue:NONE
/*************************************************************/
void PCLK_goto_idle_mode(void)
{
	asm ("doze");											// Enter sleep mode
    189e:	c0005020 	doze
}  
    18a2:	783c      	jmp      	r15

000018a4 <PCLK_goto_deepsleep_mode>:
//EntryParameter:NONE
//ReturnValue:NONE
/*************************************************************/
void PCLK_goto_deepsleep_mode(void)
{
	SYSCON->WKCR=0X3F<<8;
    18a4:	1173      	lrw      	r3, 0x20000070	// 1970 <EXI1_WakeUp_Enable+0x4>
    18a6:	9340      	ld.w      	r2, (r3, 0x0)
    18a8:	33fc      	movi      	r3, 252
    18aa:	4366      	lsli      	r3, r3, 6
    18ac:	b27b      	st.w      	r3, (r2, 0x6c)
	asm ("stop");
    18ae:	c0004820 	stop
}  
    18b2:	783c      	jmp      	r15

000018b4 <EXI0_Int_Enable>:
//EntryParameter:NONE
//ReturnValue:NONE
/*************************************************************/
void EXI0_Int_Enable(void)
{
	INTC_ISER_WRITE(EXI0_INT);    
    18b4:	117e      	lrw      	r3, 0x20000078	// 19ac <EXI1_WakeUp_Enable+0x40>
    18b6:	3280      	movi      	r2, 128
    18b8:	9360      	ld.w      	r3, (r3, 0x0)
    18ba:	23ff      	addi      	r3, 256
    18bc:	b340      	st.w      	r2, (r3, 0x0)
}
    18be:	783c      	jmp      	r15

000018c0 <EXI0_Int_Disable>:
//EntryParameter:NONE
//ReturnValue:NONE
/*************************************************************/
void EXI0_Int_Disable(void)
{
    INTC_ICER_WRITE(EXI0_INT);    
    18c0:	117b      	lrw      	r3, 0x20000078	// 19ac <EXI1_WakeUp_Enable+0x40>
    18c2:	32c0      	movi      	r2, 192
    18c4:	9360      	ld.w      	r3, (r3, 0x0)
    18c6:	4241      	lsli      	r2, r2, 1
    18c8:	60c8      	addu      	r3, r2
    18ca:	3280      	movi      	r2, 128
    18cc:	b340      	st.w      	r2, (r3, 0x0)
}
    18ce:	783c      	jmp      	r15

000018d0 <EXI1_Int_Enable>:
//EntryParameter:NONE
//ReturnValue:NONE
/*************************************************************/
void EXI1_Int_Enable(void)
{
	INTC_ISER_WRITE(EXI1_INT);    
    18d0:	1177      	lrw      	r3, 0x20000078	// 19ac <EXI1_WakeUp_Enable+0x40>
    18d2:	3280      	movi      	r2, 128
    18d4:	9360      	ld.w      	r3, (r3, 0x0)
    18d6:	23ff      	addi      	r3, 256
    18d8:	4241      	lsli      	r2, r2, 1
    18da:	b340      	st.w      	r2, (r3, 0x0)
}
    18dc:	783c      	jmp      	r15

000018de <EXI1_Int_Disable>:
//EntryParameter:NONE
//ReturnValue:NONE
/*************************************************************/
void EXI1_Int_Disable(void)
{
    INTC_ICER_WRITE(EXI1_INT);    
    18de:	1174      	lrw      	r3, 0x20000078	// 19ac <EXI1_WakeUp_Enable+0x40>
    18e0:	32c0      	movi      	r2, 192
    18e2:	9360      	ld.w      	r3, (r3, 0x0)
    18e4:	4241      	lsli      	r2, r2, 1
    18e6:	60c8      	addu      	r3, r2
    18e8:	3280      	movi      	r2, 128
    18ea:	4241      	lsli      	r2, r2, 1
    18ec:	b340      	st.w      	r2, (r3, 0x0)
}
    18ee:	783c      	jmp      	r15

000018f0 <EXI2_Int_Enable>:
//EntryParameter:NONE
//ReturnValue:NONE
/*************************************************************/
void EXI2_Int_Enable(void)
{
	INTC_ISER_WRITE(EXI2_INT);    
    18f0:	116f      	lrw      	r3, 0x20000078	// 19ac <EXI1_WakeUp_Enable+0x40>
    18f2:	3280      	movi      	r2, 128
    18f4:	9360      	ld.w      	r3, (r3, 0x0)
    18f6:	23ff      	addi      	r3, 256
    18f8:	424e      	lsli      	r2, r2, 14
    18fa:	b340      	st.w      	r2, (r3, 0x0)
}
    18fc:	783c      	jmp      	r15

000018fe <EXI2_Int_Disable>:
//EntryParameter:NONE
//ReturnValue:NONE
/*************************************************************/
void EXI2_Int_Disable(void)
{
    INTC_ICER_WRITE(EXI2_INT);    
    18fe:	116c      	lrw      	r3, 0x20000078	// 19ac <EXI1_WakeUp_Enable+0x40>
    1900:	32c0      	movi      	r2, 192
    1902:	9360      	ld.w      	r3, (r3, 0x0)
    1904:	4241      	lsli      	r2, r2, 1
    1906:	60c8      	addu      	r3, r2
    1908:	3280      	movi      	r2, 128
    190a:	424e      	lsli      	r2, r2, 14
    190c:	b340      	st.w      	r2, (r3, 0x0)
}
    190e:	783c      	jmp      	r15

00001910 <EXI3_Int_Enable>:
//EntryParameter:NONE
//ReturnValue:NONE
/*************************************************************/
void EXI3_Int_Enable(void)
{
	INTC_ISER_WRITE(EXI3_INT);    
    1910:	1167      	lrw      	r3, 0x20000078	// 19ac <EXI1_WakeUp_Enable+0x40>
    1912:	3280      	movi      	r2, 128
    1914:	9360      	ld.w      	r3, (r3, 0x0)
    1916:	23ff      	addi      	r3, 256
    1918:	424f      	lsli      	r2, r2, 15
    191a:	b340      	st.w      	r2, (r3, 0x0)
}
    191c:	783c      	jmp      	r15

0000191e <EXI3_Int_Disable>:
//EntryParameter:NONE
//ReturnValue:NONE
/*************************************************************/
void EXI3_Int_Disable(void)
{
    INTC_ICER_WRITE(EXI3_INT);    
    191e:	1164      	lrw      	r3, 0x20000078	// 19ac <EXI1_WakeUp_Enable+0x40>
    1920:	32c0      	movi      	r2, 192
    1922:	9360      	ld.w      	r3, (r3, 0x0)
    1924:	4241      	lsli      	r2, r2, 1
    1926:	60c8      	addu      	r3, r2
    1928:	3280      	movi      	r2, 128
    192a:	424f      	lsli      	r2, r2, 15
    192c:	b340      	st.w      	r2, (r3, 0x0)
}
    192e:	783c      	jmp      	r15

00001930 <EXI4_Int_Enable>:
//EntryParameter:NONE
//ReturnValue:NONE
/*************************************************************/
void EXI4_Int_Enable(void)
{
	INTC_ISER_WRITE(EXI4_INT);    
    1930:	107f      	lrw      	r3, 0x20000078	// 19ac <EXI1_WakeUp_Enable+0x40>
    1932:	3280      	movi      	r2, 128
    1934:	9360      	ld.w      	r3, (r3, 0x0)
    1936:	23ff      	addi      	r3, 256
    1938:	4250      	lsli      	r2, r2, 16
    193a:	b340      	st.w      	r2, (r3, 0x0)
}
    193c:	783c      	jmp      	r15

0000193e <EXI4_Int_Disable>:
//EntryParameter:NONE
//ReturnValue:NONE
/*************************************************************/
void EXI4_Int_Disable(void)
{
    INTC_ICER_WRITE(EXI4_INT);    
    193e:	107c      	lrw      	r3, 0x20000078	// 19ac <EXI1_WakeUp_Enable+0x40>
    1940:	32c0      	movi      	r2, 192
    1942:	9360      	ld.w      	r3, (r3, 0x0)
    1944:	4241      	lsli      	r2, r2, 1
    1946:	60c8      	addu      	r3, r2
    1948:	3280      	movi      	r2, 128
    194a:	4250      	lsli      	r2, r2, 16
    194c:	b340      	st.w      	r2, (r3, 0x0)
}
    194e:	783c      	jmp      	r15

00001950 <EXI0_WakeUp_Enable>:
//EntryParameter:NONE
//ReturnValue:NONE
/*************************************************************/
void EXI0_WakeUp_Enable(void)
{
    INTC_IWER_WRITE(EXI0_INT);    
    1950:	1077      	lrw      	r3, 0x20000078	// 19ac <EXI1_WakeUp_Enable+0x40>
    1952:	3280      	movi      	r2, 128
    1954:	9360      	ld.w      	r3, (r3, 0x0)
    1956:	23ff      	addi      	r3, 256
    1958:	b350      	st.w      	r2, (r3, 0x40)
}
    195a:	783c      	jmp      	r15

0000195c <EXI0_WakeUp_Disable>:
//EntryParameter:NONE
//ReturnValue:NONE
/*************************************************************/
void EXI0_WakeUp_Disable(void)
{
    INTC_IWDR_WRITE(EXI0_INT);    
    195c:	1074      	lrw      	r3, 0x20000078	// 19ac <EXI1_WakeUp_Enable+0x40>
    195e:	32e0      	movi      	r2, 224
    1960:	9360      	ld.w      	r3, (r3, 0x0)
    1962:	4241      	lsli      	r2, r2, 1
    1964:	60c8      	addu      	r3, r2
    1966:	3280      	movi      	r2, 128
    1968:	b340      	st.w      	r2, (r3, 0x0)
}
    196a:	783c      	jmp      	r15

0000196c <EXI1_WakeUp_Enable>:
//EXI1 Wake up enable
//EntryParameter:NONE
//ReturnValue:NONE
/*************************************************************/
void EXI1_WakeUp_Enable(void)
{
    196c:	0422      	br      	0x19b0	// 19b0 <EXI1_WakeUp_Enable+0x44>
    196e:	0000      	bkpt
    1970:	20000070 	.long	0x20000070
    1974:	0000ffff 	.long	0x0000ffff
    1978:	00ffffff 	.long	0x00ffffff
    197c:	d22d0000 	.long	0xd22d0000
    1980:	70ff3bff 	.long	0x70ff3bff
    1984:	0000070c 	.long	0x0000070c
    1988:	000003fe 	.long	0x000003fe
    198c:	20000074 	.long	0x20000074
    1990:	c33c0000 	.long	0xc33c0000
    1994:	78870000 	.long	0x78870000
    1998:	788755aa 	.long	0x788755aa
    199c:	87780000 	.long	0x87780000
    19a0:	b44b0000 	.long	0xb44b0000
    19a4:	000001ff 	.long	0x000001ff
    19a8:	00003fff 	.long	0x00003fff
    19ac:	20000078 	.long	0x20000078
    INTC_IWER_WRITE(EXI1_INT);    
    19b0:	007d      	lrw      	r3, 0x20000078	// 1d38 <GPIO_Remap+0x1d4>
    19b2:	3280      	movi      	r2, 128
    19b4:	9360      	ld.w      	r3, (r3, 0x0)
    19b6:	23ff      	addi      	r3, 256
    19b8:	4241      	lsli      	r2, r2, 1
    19ba:	b350      	st.w      	r2, (r3, 0x40)
}
    19bc:	783c      	jmp      	r15

000019be <EXI1_WakeUp_Disable>:
//EntryParameter:NONE
//ReturnValue:NONE
/*************************************************************/
void EXI1_WakeUp_Disable(void)
{
    INTC_IWDR_WRITE(EXI1_INT);    
    19be:	0160      	lrw      	r3, 0x20000078	// 1d38 <GPIO_Remap+0x1d4>
    19c0:	32e0      	movi      	r2, 224
    19c2:	9360      	ld.w      	r3, (r3, 0x0)
    19c4:	4241      	lsli      	r2, r2, 1
    19c6:	60c8      	addu      	r3, r2
    19c8:	3280      	movi      	r2, 128
    19ca:	4241      	lsli      	r2, r2, 1
    19cc:	b340      	st.w      	r2, (r3, 0x0)
}
    19ce:	783c      	jmp      	r15

000019d0 <EXI2_WakeUp_Enable>:
//EntryParameter:NONE
//ReturnValue:NONE
/*************************************************************/
void EXI2_WakeUp_Enable(void)
{
    INTC_IWER_WRITE(EXI2_INT);    
    19d0:	0165      	lrw      	r3, 0x20000078	// 1d38 <GPIO_Remap+0x1d4>
    19d2:	3280      	movi      	r2, 128
    19d4:	9360      	ld.w      	r3, (r3, 0x0)
    19d6:	23ff      	addi      	r3, 256
    19d8:	424e      	lsli      	r2, r2, 14
    19da:	b350      	st.w      	r2, (r3, 0x40)
}
    19dc:	783c      	jmp      	r15

000019de <EXI2_WakeUp_Disable>:
//EntryParameter:NONE
//ReturnValue:NONE
/*************************************************************/
void EXI2_WakeUp_Disable(void)
{
    INTC_IWDR_WRITE(EXI2_INT);    
    19de:	0168      	lrw      	r3, 0x20000078	// 1d38 <GPIO_Remap+0x1d4>
    19e0:	32e0      	movi      	r2, 224
    19e2:	9360      	ld.w      	r3, (r3, 0x0)
    19e4:	4241      	lsli      	r2, r2, 1
    19e6:	60c8      	addu      	r3, r2
    19e8:	3280      	movi      	r2, 128
    19ea:	424e      	lsli      	r2, r2, 14
    19ec:	b340      	st.w      	r2, (r3, 0x0)
}
    19ee:	783c      	jmp      	r15

000019f0 <EXI3_WakeUp_Enable>:
//EntryParameter:NONE
//ReturnValue:NONE
/*************************************************************/
void EXI3_WakeUp_Enable(void)
{
    INTC_IWER_WRITE(EXI3_INT);    
    19f0:	016d      	lrw      	r3, 0x20000078	// 1d38 <GPIO_Remap+0x1d4>
    19f2:	3280      	movi      	r2, 128
    19f4:	9360      	ld.w      	r3, (r3, 0x0)
    19f6:	23ff      	addi      	r3, 256
    19f8:	424f      	lsli      	r2, r2, 15
    19fa:	b350      	st.w      	r2, (r3, 0x40)
}
    19fc:	783c      	jmp      	r15

000019fe <EXI3_WakeUp_Disable>:
//EntryParameter:NONE
//ReturnValue:NONE
/*************************************************************/
void EXI3_WakeUp_Disable(void)
{
    INTC_IWDR_WRITE(EXI3_INT);    
    19fe:	0170      	lrw      	r3, 0x20000078	// 1d38 <GPIO_Remap+0x1d4>
    1a00:	32e0      	movi      	r2, 224
    1a02:	9360      	ld.w      	r3, (r3, 0x0)
    1a04:	4241      	lsli      	r2, r2, 1
    1a06:	60c8      	addu      	r3, r2
    1a08:	3280      	movi      	r2, 128
    1a0a:	424f      	lsli      	r2, r2, 15
    1a0c:	b340      	st.w      	r2, (r3, 0x0)
}
    1a0e:	783c      	jmp      	r15

00001a10 <EXI4_WakeUp_Enable>:
//EntryParameter:NONE
//ReturnValue:NONE
/*************************************************************/
void EXI4_WakeUp_Enable(void)
{
    INTC_IWER_WRITE(EXI4_INT);    
    1a10:	0175      	lrw      	r3, 0x20000078	// 1d38 <GPIO_Remap+0x1d4>
    1a12:	3280      	movi      	r2, 128
    1a14:	9360      	ld.w      	r3, (r3, 0x0)
    1a16:	23ff      	addi      	r3, 256
    1a18:	4250      	lsli      	r2, r2, 16
    1a1a:	b350      	st.w      	r2, (r3, 0x40)
}
    1a1c:	783c      	jmp      	r15

00001a1e <EXI4_WakeUp_Disable>:
//EntryParameter:NONE
//ReturnValue:NONE
/*************************************************************/
void EXI4_WakeUp_Disable(void)
{
    INTC_IWDR_WRITE(EXI4_INT);    
    1a1e:	0178      	lrw      	r3, 0x20000078	// 1d38 <GPIO_Remap+0x1d4>
    1a20:	32e0      	movi      	r2, 224
    1a22:	9360      	ld.w      	r3, (r3, 0x0)
    1a24:	4241      	lsli      	r2, r2, 1
    1a26:	60c8      	addu      	r3, r2
    1a28:	3280      	movi      	r2, 128
    1a2a:	4250      	lsli      	r2, r2, 16
    1a2c:	b340      	st.w      	r2, (r3, 0x0)
}
    1a2e:	783c      	jmp      	r15

00001a30 <SYSCON_Int_Enable>:
//EntryParameter:NONE
//ReturnValue:NONE
/*************************************************************/
void SYSCON_Int_Enable(void)
{
    INTC_ISER_WRITE(SYSCON_INT);    
    1a30:	017d      	lrw      	r3, 0x20000078	// 1d38 <GPIO_Remap+0x1d4>
    1a32:	3202      	movi      	r2, 2
    1a34:	9360      	ld.w      	r3, (r3, 0x0)
    1a36:	23ff      	addi      	r3, 256
    1a38:	b340      	st.w      	r2, (r3, 0x0)
}
    1a3a:	783c      	jmp      	r15

00001a3c <SYSCON_Int_Disable>:
//EntryParameter:NONE
//ReturnValue:NONE
/*************************************************************/
void SYSCON_Int_Disable(void)
{
    INTC_ICER_WRITE(SYSCON_INT);    
    1a3c:	0260      	lrw      	r3, 0x20000078	// 1d38 <GPIO_Remap+0x1d4>
    1a3e:	32c0      	movi      	r2, 192
    1a40:	9360      	ld.w      	r3, (r3, 0x0)
    1a42:	4241      	lsli      	r2, r2, 1
    1a44:	60c8      	addu      	r3, r2
    1a46:	3202      	movi      	r2, 2
    1a48:	b340      	st.w      	r2, (r3, 0x0)
}
    1a4a:	783c      	jmp      	r15

00001a4c <SYSCON_WakeUp_Enable>:
//EntryParameter:NONE
//ReturnValue:NONE
/*************************************************************/
void SYSCON_WakeUp_Enable(void)
{
    INTC_IWER_WRITE(SYSCON_INT);    
    1a4c:	0264      	lrw      	r3, 0x20000078	// 1d38 <GPIO_Remap+0x1d4>
    1a4e:	3202      	movi      	r2, 2
    1a50:	9360      	ld.w      	r3, (r3, 0x0)
    1a52:	23ff      	addi      	r3, 256
    1a54:	b350      	st.w      	r2, (r3, 0x40)
}
    1a56:	783c      	jmp      	r15

00001a58 <SYSCON_CLO_CONFIG>:
//EntryParameter:CLO_PA02/CLO_PA08
//ReturnValue:NONE
/*************************************************************/
void SYSCON_CLO_CONFIG(CLO_IO_TypeDef clo_io)
{
	if (clo_io==CLO_PA13)
    1a58:	3840      	cmpnei      	r0, 0
    1a5a:	080b      	bt      	0x1a70	// 1a70 <SYSCON_CLO_CONFIG+0x18>
	{
		GPIOA1->CONLR = (GPIOA1->CONLR&0XFFFF0FFF) | 0X00006000;
    1a5c:	0267      	lrw      	r3, 0x20000010	// 1d3c <GPIO_Remap+0x1d8>
    1a5e:	32f0      	movi      	r2, 240
    1a60:	9320      	ld.w      	r1, (r3, 0x0)
    1a62:	9160      	ld.w      	r3, (r1, 0x0)
    1a64:	4248      	lsli      	r2, r2, 8
    1a66:	68c9      	andn      	r3, r2
    1a68:	3bad      	bseti      	r3, 13
    1a6a:	3bae      	bseti      	r3, 14
	}
	if (clo_io==CLO_PB03)
	{
		GPIOB0->CONLR = (GPIOB0->CONLR&0XFFFF0FFF) | 0X00004000;
    1a6c:	b160      	st.w      	r3, (r1, 0x0)
	if (clo_io==CLO_PA08)
	{
		GPIOA0->CONHR = (GPIOA0->CONHR&0XFFFFFFF0) | 0X00000007;
	}
	
}
    1a6e:	783c      	jmp      	r15
	if (clo_io==CLO_PB03)
    1a70:	3841      	cmpnei      	r0, 1
    1a72:	0809      	bt      	0x1a84	// 1a84 <SYSCON_CLO_CONFIG+0x2c>
		GPIOB0->CONLR = (GPIOB0->CONLR&0XFFFF0FFF) | 0X00004000;
    1a74:	026c      	lrw      	r3, 0x2000000c	// 1d40 <GPIO_Remap+0x1dc>
    1a76:	32f0      	movi      	r2, 240
    1a78:	9320      	ld.w      	r1, (r3, 0x0)
    1a7a:	9160      	ld.w      	r3, (r1, 0x0)
    1a7c:	4248      	lsli      	r2, r2, 8
    1a7e:	68c9      	andn      	r3, r2
    1a80:	3bae      	bseti      	r3, 14
    1a82:	07f5      	br      	0x1a6c	// 1a6c <SYSCON_CLO_CONFIG+0x14>
	if (clo_io==CLO_PC01)
    1a84:	3842      	cmpnei      	r0, 2
    1a86:	080a      	bt      	0x1a9a	// 1a9a <SYSCON_CLO_CONFIG+0x42>
		GPIOC0->CONLR = (GPIOC0->CONLR&0XFFFFFF0F) | 0X00000050;
    1a88:	0270      	lrw      	r3, 0x20000008	// 1d44 <GPIO_Remap+0x1e0>
    1a8a:	31f0      	movi      	r1, 240
    1a8c:	9340      	ld.w      	r2, (r3, 0x0)
    1a8e:	9260      	ld.w      	r3, (r2, 0x0)
    1a90:	68c5      	andn      	r3, r1
    1a92:	3ba4      	bseti      	r3, 4
    1a94:	3ba6      	bseti      	r3, 6
    1a96:	b260      	st.w      	r3, (r2, 0x0)
    1a98:	07eb      	br      	0x1a6e	// 1a6e <SYSCON_CLO_CONFIG+0x16>
	if (clo_io==CLO_PA08)
    1a9a:	3843      	cmpnei      	r0, 3
    1a9c:	0be9      	bt      	0x1a6e	// 1a6e <SYSCON_CLO_CONFIG+0x16>
		GPIOA0->CONHR = (GPIOA0->CONHR&0XFFFFFFF0) | 0X00000007;
    1a9e:	0274      	lrw      	r3, 0x20000014	// 1d48 <GPIO_Remap+0x1e4>
    1aa0:	310f      	movi      	r1, 15
    1aa2:	9340      	ld.w      	r2, (r3, 0x0)
    1aa4:	9261      	ld.w      	r3, (r2, 0x4)
    1aa6:	68c5      	andn      	r3, r1
    1aa8:	3107      	movi      	r1, 7
    1aaa:	6cc4      	or      	r3, r1
    1aac:	b261      	st.w      	r3, (r2, 0x4)
}
    1aae:	07e0      	br      	0x1a6e	// 1a6e <SYSCON_CLO_CONFIG+0x16>

00001ab0 <SYSCON_CLO_SRC_SET>:
//set CLO clk and div
//EntryParameter:clomxr/clodivr
//ReturnValue:NONE
/*************************************************************/
void SYSCON_CLO_SRC_SET(SystemClk_CLOMX_TypeDef clomxr,SystemClk_CLODIV_TypeDef clodivr)
{
    1ab0:	14c1      	push      	r4
	SYSCON->OPT1=(SYSCON->OPT1 & 0XFFFF00FF)|(clomxr<<8)|(clodivr<<12);
    1ab2:	0278      	lrw      	r3, 0x20000070	// 1d4c <GPIO_Remap+0x1e8>
    1ab4:	34ff      	movi      	r4, 255
    1ab6:	9340      	ld.w      	r2, (r3, 0x0)
    1ab8:	9279      	ld.w      	r3, (r2, 0x64)
    1aba:	4488      	lsli      	r4, r4, 8
    1abc:	68d1      	andn      	r3, r4
    1abe:	412c      	lsli      	r1, r1, 12
    1ac0:	6c4c      	or      	r1, r3
    1ac2:	4008      	lsli      	r0, r0, 8
    1ac4:	6c04      	or      	r0, r1
    1ac6:	b219      	st.w      	r0, (r2, 0x64)
}
    1ac8:	1481      	pop      	r4

00001aca <SYSCON_WakeUp_Disable>:
//EntryParameter:NONE
//ReturnValue:NONE
/*************************************************************/
void SYSCON_WakeUp_Disable(void)
{
    INTC_IWDR_WRITE(SYSCON_INT);    
    1aca:	0363      	lrw      	r3, 0x20000078	// 1d38 <GPIO_Remap+0x1d4>
    1acc:	32e0      	movi      	r2, 224
    1ace:	9360      	ld.w      	r3, (r3, 0x0)
    1ad0:	4241      	lsli      	r2, r2, 1
    1ad2:	60c8      	addu      	r3, r2
    1ad4:	3202      	movi      	r2, 2
    1ad6:	b340      	st.w      	r2, (r3, 0x0)
}
    1ad8:	783c      	jmp      	r15

00001ada <SYSCON_Read_CINF0>:
//ReturnValue:VALUE
/*************************************************************/
U32_T SYSCON_Read_CINF0(void)
{
    U32_T value = 0;
    value=SYSCON->CINF0;
    1ada:	0362      	lrw      	r3, 0x20000070	// 1d4c <GPIO_Remap+0x1e8>
    1adc:	9360      	ld.w      	r3, (r3, 0x0)
    1ade:	237f      	addi      	r3, 128
    1ae0:	9312      	ld.w      	r0, (r3, 0x48)
    return value;
}
    1ae2:	783c      	jmp      	r15

00001ae4 <SYSCON_Read_CINF1>:
//ReturnValue:VALUE
/*************************************************************/
U32_T SYSCON_Read_CINF1(void)
{
    U32_T value = 0;
    value=SYSCON->CINF1;
    1ae4:	0365      	lrw      	r3, 0x20000070	// 1d4c <GPIO_Remap+0x1e8>
    1ae6:	9360      	ld.w      	r3, (r3, 0x0)
    1ae8:	237f      	addi      	r3, 128
    1aea:	9313      	ld.w      	r0, (r3, 0x4c)
    return value;
}
    1aec:	783c      	jmp      	r15

00001aee <SYSCON_Software_Reset>:
//EntryParameter:None
//ReturnValue:MCU reset
/*************************************************************/
void SYSCON_Software_Reset(void)
{
	SYSCON->IDCCR=IDCCR_KEY|SWRST;
    1aee:	0367      	lrw      	r3, 0x20000070	// 1d4c <GPIO_Remap+0x1e8>
    1af0:	0347      	lrw      	r2, 0xe11e0080	// 1d50 <GPIO_Remap+0x1ec>
    1af2:	9360      	ld.w      	r3, (r3, 0x0)
    1af4:	b340      	st.w      	r2, (r3, 0x0)
}
    1af6:	783c      	jmp      	r15

00001af8 <SYSCON_INT_Priority>:
//80:Priority 2
//C0:Priority 3		lowest
/*************************************************************/
void SYSCON_INT_Priority(void)
{
	INTC_IPR0_WRITE(0XC0C0C0C0);   //IQR0-3  low bit-->high bit
    1af8:	036f      	lrw      	r3, 0x20000078	// 1d38 <GPIO_Remap+0x1d4>
    1afa:	3180      	movi      	r1, 128
    1afc:	9360      	ld.w      	r3, (r3, 0x0)
    1afe:	4123      	lsli      	r1, r1, 3
    1b00:	034a      	lrw      	r2, 0xc0c0c0c0	// 1d54 <GPIO_Remap+0x1f0>
    1b02:	604c      	addu      	r1, r3
    1b04:	b140      	st.w      	r2, (r1, 0x0)
	INTC_IPR1_WRITE(0XC0C0C0C0);   //IQR4-7  
    1b06:	032a      	lrw      	r1, 0x404	// 1d58 <GPIO_Remap+0x1f4>
    1b08:	604c      	addu      	r1, r3
    1b0a:	b140      	st.w      	r2, (r1, 0x0)
	INTC_IPR2_WRITE(0XC0C0C0C0);   //IQR8-11  
    1b0c:	3181      	movi      	r1, 129
    1b0e:	4123      	lsli      	r1, r1, 3
    1b10:	604c      	addu      	r1, r3
    1b12:	b140      	st.w      	r2, (r1, 0x0)
	INTC_IPR3_WRITE(0XC0C0C0C0);   //IQR12-15  
    1b14:	032d      	lrw      	r1, 0x40c	// 1d5c <GPIO_Remap+0x1f8>
    1b16:	604c      	addu      	r1, r3
    1b18:	b140      	st.w      	r2, (r1, 0x0)
	INTC_IPR4_WRITE(0XC0C0C0C0);   //IQR16-19  
    1b1a:	3182      	movi      	r1, 130
    1b1c:	4123      	lsli      	r1, r1, 3
    1b1e:	604c      	addu      	r1, r3
    1b20:	b140      	st.w      	r2, (r1, 0x0)
	INTC_IPR5_WRITE(0XC0C0C0C0);   //IQR20-23 
    1b22:	032f      	lrw      	r1, 0x414	// 1d60 <GPIO_Remap+0x1fc>
    1b24:	604c      	addu      	r1, r3
    1b26:	b140      	st.w      	r2, (r1, 0x0)
	INTC_IPR6_WRITE(0XC0C000C0);   //IQR24-27  
    1b28:	3183      	movi      	r1, 131
    1b2a:	4123      	lsli      	r1, r1, 3
    1b2c:	604c      	addu      	r1, r3
    1b2e:	0311      	lrw      	r0, 0xc0c000c0	// 1d64 <GPIO_Remap+0x200>
    1b30:	b100      	st.w      	r0, (r1, 0x0)
	INTC_IPR7_WRITE(0XC0C0C0C0);   //IQR28-31
    1b32:	0331      	lrw      	r1, 0x41c	// 1d68 <GPIO_Remap+0x204>
    1b34:	60c4      	addu      	r3, r1
    1b36:	b340      	st.w      	r2, (r3, 0x0)
}
    1b38:	783c      	jmp      	r15

00001b3a <Set_INT_Priority>:
//int_name:CORET_IRQ~BT1_IRQ
//int_level:0~3  0=highest   3=lowest
//ReturnValue:None
/*************************************************************/
void Set_INT_Priority(U8_T int_name,U8_T int_level)
{
    1b3a:	14c1      	push      	r4
    1b3c:	4862      	lsri      	r3, r0, 2
    1b3e:	4342      	lsli      	r2, r3, 2
    1b40:	137e      	lrw      	r3, 0x20000078	// 1d38 <GPIO_Remap+0x1d4>
	U8_T i_temp,j_temp;
	U32_T k_temp;
	i_temp=(int_name%4)*8;
    1b42:	3403      	movi      	r4, 3
    1b44:	9360      	ld.w      	r3, (r3, 0x0)
    1b46:	60c8      	addu      	r3, r2
	j_temp=int_name/4;
	k_temp=CK802 -> IPR[j_temp]&(~(0xff<<i_temp));
    1b48:	3280      	movi      	r2, 128
    1b4a:	4243      	lsli      	r2, r2, 3
	i_temp=(int_name%4)*8;
    1b4c:	6810      	and      	r0, r4
	k_temp=CK802 -> IPR[j_temp]&(~(0xff<<i_temp));
    1b4e:	60c8      	addu      	r3, r2
    1b50:	4003      	lsli      	r0, r0, 3
    1b52:	34ff      	movi      	r4, 255
    1b54:	9340      	ld.w      	r2, (r3, 0x0)
    1b56:	7100      	lsl      	r4, r0
	CK802 -> IPR[j_temp]=k_temp|((int_level*0x40)<<(i_temp));
    1b58:	4126      	lsli      	r1, r1, 6
	k_temp=CK802 -> IPR[j_temp]&(~(0xff<<i_temp));
    1b5a:	6891      	andn      	r2, r4
	CK802 -> IPR[j_temp]=k_temp|((int_level*0x40)<<(i_temp));
    1b5c:	7040      	lsl      	r1, r0
    1b5e:	6c48      	or      	r1, r2
    1b60:	b320      	st.w      	r1, (r3, 0x0)
}
    1b62:	1481      	pop      	r4

00001b64 <GPIO_Remap>:
//0x00=UART0_RX 0X01=UART0_TX 0X02=EPT_CHAX 0X03=PT_CHBX
//0X04=PT_CHCX 0X05=PT_CHAY 0X06=PT_CHBY 0X07=PT_CHCY
//ReturnValue:NONE
/*************************************************************/
void GPIO_Remap(CSP_GPIO_T *GPIOx,uint8_t bit,IOMAP_DIR_TypeDef iomap_data)
{
    1b64:	14c4      	push      	r4-r7
	U8_T i;
	if(iomap_data&0x10)
    1b66:	3310      	movi      	r3, 16
    1b68:	68c8      	and      	r3, r2
    1b6a:	3b40      	cmpnei      	r3, 0
    1b6c:	0caa      	bf      	0x1cc0	// 1cc0 <GPIO_Remap+0x15c>
	{
		iomap_data=iomap_data&0X0F;
    1b6e:	330f      	movi      	r3, 15
    1b70:	688c      	and      	r2, r3
		if(iomap_data==0)
    1b72:	3a40      	cmpnei      	r2, 0
    1b74:	0c12      	bf      	0x1b98	// 1b98 <GPIO_Remap+0x34>
				{
					SYSCON->IOMAP1=SYSCON->IOMAP1|(0xf<<i);
				}
			}
		}
		if(bit==2){SYSCON->IOMAP1=(SYSCON->IOMAP1&0xfffffff0)|iomap_data;(GPIOx)->CONLR =((GPIOx)->CONLR&0XFFFFF0FF) | 0x00000A00;}
    1b76:	3942      	cmpnei      	r1, 2
    1b78:	0822      	bt      	0x1bbc	// 1bbc <GPIO_Remap+0x58>
    1b7a:	1375      	lrw      	r3, 0x20000070	// 1d4c <GPIO_Remap+0x1e8>
    1b7c:	340f      	movi      	r4, 15
    1b7e:	9320      	ld.w      	r1, (r3, 0x0)
    1b80:	217f      	addi      	r1, 128
    1b82:	9171      	ld.w      	r3, (r1, 0x44)
    1b84:	68d1      	andn      	r3, r4
    1b86:	6c8c      	or      	r2, r3
    1b88:	b151      	st.w      	r2, (r1, 0x44)
    1b8a:	32f0      	movi      	r2, 240
    1b8c:	9060      	ld.w      	r3, (r0, 0x0)
    1b8e:	4244      	lsli      	r2, r2, 4
    1b90:	68c9      	andn      	r3, r2
				}
			}
		}
		if(bit==0){SYSCON->IOMAP0=(SYSCON->IOMAP0&0xfffffff0)|iomap_data;(GPIOx)->CONLR =((GPIOx)->CONLR&0XFFFFFFF0) | 0x0000000A;}
		if(bit==1){SYSCON->IOMAP0=(SYSCON->IOMAP0&0xffffff0f)|(iomap_data<<4);(GPIOx)->CONLR =((GPIOx)->CONLR&0XFFFFFF0F) | 0x000000A0;}
		if(bit==2){SYSCON->IOMAP0=(SYSCON->IOMAP0&0xfffff0ff)|(iomap_data<<8);(GPIOx)->CONLR =((GPIOx)->CONLR&0XFFFFF0FF) | 0x00000A00;}
    1b92:	3ba9      	bseti      	r3, 9
    1b94:	3bab      	bseti      	r3, 11
    1b96:	04c7      	br      	0x1d24	// 1d24 <GPIO_Remap+0x1c0>
				if((SYSCON->IOMAP1&(0xf<<i))==0)
    1b98:	136d      	lrw      	r3, 0x20000070	// 1d4c <GPIO_Remap+0x1e8>
    1b9a:	3400      	movi      	r4, 0
    1b9c:	9360      	ld.w      	r3, (r3, 0x0)
    1b9e:	237f      	addi      	r3, 128
    1ba0:	360f      	movi      	r6, 15
    1ba2:	6d5b      	mov      	r5, r6
    1ba4:	93f1      	ld.w      	r7, (r3, 0x44)
    1ba6:	7150      	lsl      	r5, r4
    1ba8:	69d4      	and      	r7, r5
    1baa:	3f40      	cmpnei      	r7, 0
    1bac:	0804      	bt      	0x1bb4	// 1bb4 <GPIO_Remap+0x50>
					SYSCON->IOMAP1=SYSCON->IOMAP1|(0xf<<i);
    1bae:	93f1      	ld.w      	r7, (r3, 0x44)
    1bb0:	6d5c      	or      	r5, r7
    1bb2:	b3b1      	st.w      	r5, (r3, 0x44)
    1bb4:	2403      	addi      	r4, 4
			for(i=0;i<28;i+=4)
    1bb6:	3c5c      	cmpnei      	r4, 28
    1bb8:	0bf5      	bt      	0x1ba2	// 1ba2 <GPIO_Remap+0x3e>
    1bba:	07de      	br      	0x1b76	// 1b76 <GPIO_Remap+0x12>
		if(bit==3){SYSCON->IOMAP1=(SYSCON->IOMAP1&0xffffff0f)|(iomap_data<<4);(GPIOx)->CONLR =((GPIOx)->CONLR&0XFFFF0FFF) | 0x0000A000;}
    1bbc:	3943      	cmpnei      	r1, 3
    1bbe:	0811      	bt      	0x1be0	// 1be0 <GPIO_Remap+0x7c>
    1bc0:	1363      	lrw      	r3, 0x20000070	// 1d4c <GPIO_Remap+0x1e8>
    1bc2:	34f0      	movi      	r4, 240
    1bc4:	9320      	ld.w      	r1, (r3, 0x0)
    1bc6:	217f      	addi      	r1, 128
    1bc8:	9171      	ld.w      	r3, (r1, 0x44)
    1bca:	68d1      	andn      	r3, r4
    1bcc:	4244      	lsli      	r2, r2, 4
    1bce:	6c8c      	or      	r2, r3
    1bd0:	b151      	st.w      	r2, (r1, 0x44)
    1bd2:	32f0      	movi      	r2, 240
    1bd4:	9060      	ld.w      	r3, (r0, 0x0)
    1bd6:	4248      	lsli      	r2, r2, 8
    1bd8:	68c9      	andn      	r3, r2
		if(bit==3){SYSCON->IOMAP0=(SYSCON->IOMAP0&0xffff0fff)|(iomap_data<<12);(GPIOx)->CONLR =((GPIOx)->CONLR&0XFFFF0FFF) | 0x0000A000;}
    1bda:	3bad      	bseti      	r3, 13
    1bdc:	3baf      	bseti      	r3, 15
    1bde:	04a3      	br      	0x1d24	// 1d24 <GPIO_Remap+0x1c0>
		if(bit==8){SYSCON->IOMAP1=(SYSCON->IOMAP1&0xfffff0ff)|(iomap_data<<8);(GPIOx)->CONHR =((GPIOx)->CONHR&0XFFFFFFF0) | 0x0000000A;}
    1be0:	3948      	cmpnei      	r1, 8
    1be2:	0812      	bt      	0x1c06	// 1c06 <GPIO_Remap+0xa2>
    1be4:	127a      	lrw      	r3, 0x20000070	// 1d4c <GPIO_Remap+0x1e8>
    1be6:	34f0      	movi      	r4, 240
    1be8:	9320      	ld.w      	r1, (r3, 0x0)
    1bea:	217f      	addi      	r1, 128
    1bec:	9171      	ld.w      	r3, (r1, 0x44)
    1bee:	4484      	lsli      	r4, r4, 4
    1bf0:	68d1      	andn      	r3, r4
    1bf2:	4248      	lsli      	r2, r2, 8
    1bf4:	6c8c      	or      	r2, r3
    1bf6:	b151      	st.w      	r2, (r1, 0x44)
    1bf8:	9061      	ld.w      	r3, (r0, 0x4)
    1bfa:	320f      	movi      	r2, 15
    1bfc:	68c9      	andn      	r3, r2
    1bfe:	3ba1      	bseti      	r3, 1
    1c00:	3ba3      	bseti      	r3, 3
		if(bit==10){SYSCON->IOMAP1=(SYSCON->IOMAP1&0xfff0ffff)|(iomap_data<<16);(GPIOx)->CONHR =((GPIOx)->CONHR&0XFFFFF0FF) | 0x00000A00;}
    1c02:	b061      	st.w      	r3, (r0, 0x4)
		if(bit==4){SYSCON->IOMAP0=(SYSCON->IOMAP0&0xfff0ffff)|(iomap_data<<16);(GPIOx)->CONLR =((GPIOx)->CONLR&0XFFF0FFFF) | 0x000A0000;}
		if(bit==5){SYSCON->IOMAP0=(SYSCON->IOMAP0&0xff0fffff)|(iomap_data<<20);(GPIOx)->CONLR =((GPIOx)->CONLR&0XFF0FFFFF) | 0x00A00000;}
		if(bit==6){SYSCON->IOMAP0=(SYSCON->IOMAP0&0xf0ffffff)|(iomap_data<<24);(GPIOx)->CONLR =((GPIOx)->CONLR&0XF0FFFFFF) | 0x0A000000;}
		if(bit==7){SYSCON->IOMAP0=(SYSCON->IOMAP0&0x0fffffff)|(iomap_data<<28);(GPIOx)->CONLR =((GPIOx)->CONLR&0X0FFFFFFF) | 0x0A0000000;}
	}
}
    1c04:	1484      	pop      	r4-r7
		if(bit==9){SYSCON->IOMAP1=(SYSCON->IOMAP1&0xffff0fff)|(iomap_data<<12);(GPIOx)->CONHR =((GPIOx)->CONHR&0XFFFFFF0F) | 0x000000A0;}
    1c06:	3949      	cmpnei      	r1, 9
    1c08:	0811      	bt      	0x1c2a	// 1c2a <GPIO_Remap+0xc6>
    1c0a:	1271      	lrw      	r3, 0x20000070	// 1d4c <GPIO_Remap+0x1e8>
    1c0c:	34f0      	movi      	r4, 240
    1c0e:	9320      	ld.w      	r1, (r3, 0x0)
    1c10:	217f      	addi      	r1, 128
    1c12:	9171      	ld.w      	r3, (r1, 0x44)
    1c14:	4488      	lsli      	r4, r4, 8
    1c16:	68d1      	andn      	r3, r4
    1c18:	424c      	lsli      	r2, r2, 12
    1c1a:	6c8c      	or      	r2, r3
    1c1c:	b151      	st.w      	r2, (r1, 0x44)
    1c1e:	9061      	ld.w      	r3, (r0, 0x4)
    1c20:	32f0      	movi      	r2, 240
    1c22:	68c9      	andn      	r3, r2
    1c24:	3ba5      	bseti      	r3, 5
    1c26:	3ba7      	bseti      	r3, 7
    1c28:	07ed      	br      	0x1c02	// 1c02 <GPIO_Remap+0x9e>
		if(bit==10){SYSCON->IOMAP1=(SYSCON->IOMAP1&0xfff0ffff)|(iomap_data<<16);(GPIOx)->CONHR =((GPIOx)->CONHR&0XFFFFF0FF) | 0x00000A00;}
    1c2a:	394a      	cmpnei      	r1, 10
    1c2c:	0812      	bt      	0x1c50	// 1c50 <GPIO_Remap+0xec>
    1c2e:	1268      	lrw      	r3, 0x20000070	// 1d4c <GPIO_Remap+0x1e8>
    1c30:	34f0      	movi      	r4, 240
    1c32:	9320      	ld.w      	r1, (r3, 0x0)
    1c34:	217f      	addi      	r1, 128
    1c36:	9171      	ld.w      	r3, (r1, 0x44)
    1c38:	448c      	lsli      	r4, r4, 12
    1c3a:	68d1      	andn      	r3, r4
    1c3c:	4250      	lsli      	r2, r2, 16
    1c3e:	6c8c      	or      	r2, r3
    1c40:	b151      	st.w      	r2, (r1, 0x44)
    1c42:	32f0      	movi      	r2, 240
    1c44:	9061      	ld.w      	r3, (r0, 0x4)
    1c46:	4244      	lsli      	r2, r2, 4
    1c48:	68c9      	andn      	r3, r2
    1c4a:	3ba9      	bseti      	r3, 9
    1c4c:	3bab      	bseti      	r3, 11
    1c4e:	07da      	br      	0x1c02	// 1c02 <GPIO_Remap+0x9e>
		if(bit==11){SYSCON->IOMAP1=(SYSCON->IOMAP1&0xff0fffff)|(iomap_data<<20);(GPIOx)->CONHR =((GPIOx)->CONHR&0XFFFF0FFF) | 0x0000A000;}
    1c50:	394b      	cmpnei      	r1, 11
    1c52:	0812      	bt      	0x1c76	// 1c76 <GPIO_Remap+0x112>
    1c54:	117e      	lrw      	r3, 0x20000070	// 1d4c <GPIO_Remap+0x1e8>
    1c56:	34f0      	movi      	r4, 240
    1c58:	9320      	ld.w      	r1, (r3, 0x0)
    1c5a:	217f      	addi      	r1, 128
    1c5c:	9171      	ld.w      	r3, (r1, 0x44)
    1c5e:	4490      	lsli      	r4, r4, 16
    1c60:	68d1      	andn      	r3, r4
    1c62:	4254      	lsli      	r2, r2, 20
    1c64:	6c8c      	or      	r2, r3
    1c66:	b151      	st.w      	r2, (r1, 0x44)
    1c68:	32f0      	movi      	r2, 240
    1c6a:	9061      	ld.w      	r3, (r0, 0x4)
    1c6c:	4248      	lsli      	r2, r2, 8
    1c6e:	68c9      	andn      	r3, r2
    1c70:	3bad      	bseti      	r3, 13
    1c72:	3baf      	bseti      	r3, 15
    1c74:	07c7      	br      	0x1c02	// 1c02 <GPIO_Remap+0x9e>
		if(bit==12){SYSCON->IOMAP1=(SYSCON->IOMAP1&0xf0ffffff)|(iomap_data<<24);(GPIOx)->CONHR =((GPIOx)->CONHR&0XFFF0FFFF) | 0x000A0000;}
    1c76:	394c      	cmpnei      	r1, 12
    1c78:	0812      	bt      	0x1c9c	// 1c9c <GPIO_Remap+0x138>
    1c7a:	1175      	lrw      	r3, 0x20000070	// 1d4c <GPIO_Remap+0x1e8>
    1c7c:	34f0      	movi      	r4, 240
    1c7e:	9320      	ld.w      	r1, (r3, 0x0)
    1c80:	217f      	addi      	r1, 128
    1c82:	9171      	ld.w      	r3, (r1, 0x44)
    1c84:	4494      	lsli      	r4, r4, 20
    1c86:	68d1      	andn      	r3, r4
    1c88:	4258      	lsli      	r2, r2, 24
    1c8a:	6c8c      	or      	r2, r3
    1c8c:	b151      	st.w      	r2, (r1, 0x44)
    1c8e:	32f0      	movi      	r2, 240
    1c90:	9061      	ld.w      	r3, (r0, 0x4)
    1c92:	424c      	lsli      	r2, r2, 12
    1c94:	68c9      	andn      	r3, r2
    1c96:	3bb1      	bseti      	r3, 17
    1c98:	3bb3      	bseti      	r3, 19
    1c9a:	07b4      	br      	0x1c02	// 1c02 <GPIO_Remap+0x9e>
		if(bit==13){SYSCON->IOMAP1=(SYSCON->IOMAP1&0x0fffffff)|(iomap_data<<28);(GPIOx)->CONHR =((GPIOx)->CONHR&0XFF0FFFFF) | 0x00A00000;}
    1c9c:	394d      	cmpnei      	r1, 13
    1c9e:	0bb3      	bt      	0x1c04	// 1c04 <GPIO_Remap+0xa0>
    1ca0:	116b      	lrw      	r3, 0x20000070	// 1d4c <GPIO_Remap+0x1e8>
    1ca2:	425c      	lsli      	r2, r2, 28
    1ca4:	9320      	ld.w      	r1, (r3, 0x0)
    1ca6:	217f      	addi      	r1, 128
    1ca8:	9171      	ld.w      	r3, (r1, 0x44)
    1caa:	4364      	lsli      	r3, r3, 4
    1cac:	4b64      	lsri      	r3, r3, 4
    1cae:	6c8c      	or      	r2, r3
    1cb0:	b151      	st.w      	r2, (r1, 0x44)
    1cb2:	32f0      	movi      	r2, 240
    1cb4:	9061      	ld.w      	r3, (r0, 0x4)
    1cb6:	4250      	lsli      	r2, r2, 16
    1cb8:	68c9      	andn      	r3, r2
    1cba:	3bb5      	bseti      	r3, 21
    1cbc:	3bb7      	bseti      	r3, 23
    1cbe:	07a2      	br      	0x1c02	// 1c02 <GPIO_Remap+0x9e>
		if(iomap_data==0)
    1cc0:	3a40      	cmpnei      	r2, 0
    1cc2:	0c13      	bf      	0x1ce8	// 1ce8 <GPIO_Remap+0x184>
		if(bit==0){SYSCON->IOMAP0=(SYSCON->IOMAP0&0xfffffff0)|iomap_data;(GPIOx)->CONLR =((GPIOx)->CONLR&0XFFFFFFF0) | 0x0000000A;}
    1cc4:	3940      	cmpnei      	r1, 0
    1cc6:	0c23      	bf      	0x1d0c	// 1d0c <GPIO_Remap+0x1a8>
		if(bit==1){SYSCON->IOMAP0=(SYSCON->IOMAP0&0xffffff0f)|(iomap_data<<4);(GPIOx)->CONLR =((GPIOx)->CONLR&0XFFFFFF0F) | 0x000000A0;}
    1cc8:	3941      	cmpnei      	r1, 1
    1cca:	082f      	bt      	0x1d28	// 1d28 <GPIO_Remap+0x1c4>
    1ccc:	1160      	lrw      	r3, 0x20000070	// 1d4c <GPIO_Remap+0x1e8>
    1cce:	34f0      	movi      	r4, 240
    1cd0:	9320      	ld.w      	r1, (r3, 0x0)
    1cd2:	217f      	addi      	r1, 128
    1cd4:	9170      	ld.w      	r3, (r1, 0x40)
    1cd6:	68d1      	andn      	r3, r4
    1cd8:	4244      	lsli      	r2, r2, 4
    1cda:	6c8c      	or      	r2, r3
    1cdc:	b150      	st.w      	r2, (r1, 0x40)
    1cde:	9060      	ld.w      	r3, (r0, 0x0)
    1ce0:	68d1      	andn      	r3, r4
    1ce2:	3ba5      	bseti      	r3, 5
    1ce4:	3ba7      	bseti      	r3, 7
    1ce6:	041f      	br      	0x1d24	// 1d24 <GPIO_Remap+0x1c0>
			if((SYSCON->IOMAP0&(0xf<<i))==0)
